Component: ARM Compiler 5.05 update 1 (build 106) Tool: armlink [4d0efa]

==============================================================================

Section Cross References

    system_stm32f10x.o(i.SetSysClock) refers to system_stm32f10x.o(i.SetSysClockTo72) for SetSysClockTo72
    system_stm32f10x.o(i.SystemCoreClockUpdate) refers to system_stm32f10x.o(.data) for SystemCoreClock
    system_stm32f10x.o(i.SystemInit) refers to system_stm32f10x.o(i.SetSysClock) for SetSysClock
    startup_stm32f10x_md.o(STACK) refers (Special) to heapauxi.o(.text) for __use_two_region_memory
    startup_stm32f10x_md.o(HEAP) refers (Special) to heapauxi.o(.text) for __use_two_region_memory
    startup_stm32f10x_md.o(RESET) refers (Special) to heapauxi.o(.text) for __use_two_region_memory
    startup_stm32f10x_md.o(RESET) refers to startup_stm32f10x_md.o(STACK) for __initial_sp
    startup_stm32f10x_md.o(RESET) refers to startup_stm32f10x_md.o(.text) for Reset_Handler
    startup_stm32f10x_md.o(RESET) refers to stm32f10x_it.o(i.NMI_Handler) for NMI_Handler
    startup_stm32f10x_md.o(RESET) refers to stm32f10x_it.o(i.HardFault_Handler) for HardFault_Handler
    startup_stm32f10x_md.o(RESET) refers to stm32f10x_it.o(i.MemManage_Handler) for MemManage_Handler
    startup_stm32f10x_md.o(RESET) refers to stm32f10x_it.o(i.BusFault_Handler) for BusFault_Handler
    startup_stm32f10x_md.o(RESET) refers to stm32f10x_it.o(i.UsageFault_Handler) for UsageFault_Handler
    startup_stm32f10x_md.o(RESET) refers to stm32f10x_it.o(i.SVC_Handler) for SVC_Handler
    startup_stm32f10x_md.o(RESET) refers to stm32f10x_it.o(i.DebugMon_Handler) for DebugMon_Handler
    startup_stm32f10x_md.o(RESET) refers to os_cpu_a.o(.text) for PendSV_Handler
    startup_stm32f10x_md.o(RESET) refers to delay.o(i.SysTick_Handler) for SysTick_Handler
    startup_stm32f10x_md.o(RESET) refers to wwdg.o(i.WWDG_IRQHandler) for WWDG_IRQHandler
    startup_stm32f10x_md.o(RESET) refers to can.o(i.USB_LP_CAN1_RX0_IRQHandler) for USB_LP_CAN1_RX0_IRQHandler
    startup_stm32f10x_md.o(RESET) refers to usart2.o(i.TIM4_IRQHandler) for TIM4_IRQHandler
    startup_stm32f10x_md.o(RESET) refers to usart.o(i.USART1_IRQHandler) for USART1_IRQHandler
    startup_stm32f10x_md.o(RESET) refers to usart2.o(i.USART2_IRQHandler) for USART2_IRQHandler
    startup_stm32f10x_md.o(RESET) refers to frameware.o(i.EXTI15_10_IRQHandler) for EXTI15_10_IRQHandler
    startup_stm32f10x_md.o(.text) refers (Special) to heapauxi.o(.text) for __use_two_region_memory
    startup_stm32f10x_md.o(.text) refers to system_stm32f10x.o(i.SystemInit) for SystemInit
    startup_stm32f10x_md.o(.text) refers to __main.o(!!!main) for __main
    startup_stm32f10x_md.o(.text) refers to startup_stm32f10x_md.o(HEAP) for Heap_Mem
    startup_stm32f10x_md.o(.text) refers to startup_stm32f10x_md.o(STACK) for Stack_Mem
    os_core.o(i.OSInit) refers to os_cpu_c.o(i.OSInitHookBegin) for OSInitHookBegin
    os_core.o(i.OSInit) refers to os_core.o(i.OS_InitMisc) for OS_InitMisc
    os_core.o(i.OSInit) refers to os_core.o(i.OS_InitRdyList) for OS_InitRdyList
    os_core.o(i.OSInit) refers to os_core.o(i.OS_InitTCBList) for OS_InitTCBList
    os_core.o(i.OSInit) refers to os_core.o(i.OS_InitEventList) for OS_InitEventList
    os_core.o(i.OSInit) refers to os_flag.o(i.OS_FlagInit) for OS_FlagInit
    os_core.o(i.OSInit) refers to os_q.o(i.OS_QInit) for OS_QInit
    os_core.o(i.OSInit) refers to os_core.o(i.OS_InitTaskIdle) for OS_InitTaskIdle
    os_core.o(i.OSInit) refers to os_core.o(i.OS_InitTaskStat) for OS_InitTaskStat
    os_core.o(i.OSInit) refers to os_tmr.o(i.OSTmr_Init) for OSTmr_Init
    os_core.o(i.OSInit) refers to os_cpu_c.o(i.OSInitHookEnd) for OSInitHookEnd
    os_core.o(i.OSIntEnter) refers to os_core.o(.data) for OSRunning
    os_core.o(i.OSIntExit) refers to os_cpu_a.o(.text) for OS_CPU_SR_Save
    os_core.o(i.OSIntExit) refers to os_core.o(i.OS_SchedNew) for OS_SchedNew
    os_core.o(i.OSIntExit) refers to os_core.o(.data) for OSRunning
    os_core.o(i.OSIntExit) refers to os_core.o(.bss) for OSTCBPrioTbl
    os_core.o(i.OSSchedLock) refers to os_cpu_a.o(.text) for OS_CPU_SR_Save
    os_core.o(i.OSSchedLock) refers to os_core.o(.data) for OSRunning
    os_core.o(i.OSSchedUnlock) refers to os_cpu_a.o(.text) for OS_CPU_SR_Save
    os_core.o(i.OSSchedUnlock) refers to os_core.o(i.OS_Sched) for OS_Sched
    os_core.o(i.OSSchedUnlock) refers to os_core.o(.data) for OSRunning
    os_core.o(i.OSStart) refers to os_core.o(i.OS_SchedNew) for OS_SchedNew
    os_core.o(i.OSStart) refers to os_cpu_a.o(.text) for OSStartHighRdy
    os_core.o(i.OSStart) refers to os_core.o(.data) for OSRunning
    os_core.o(i.OSStart) refers to os_core.o(.bss) for OSTCBPrioTbl
    os_core.o(i.OSStatInit) refers to os_time.o(i.OSTimeDly) for OSTimeDly
    os_core.o(i.OSStatInit) refers to os_cpu_a.o(.text) for OS_CPU_SR_Save
    os_core.o(i.OSStatInit) refers to os_core.o(.data) for OSIdleCtr
    os_core.o(i.OSTimeTick) refers to os_cpu_c.o(i.OSTimeTickHook) for OSTimeTickHook
    os_core.o(i.OSTimeTick) refers to os_cpu_a.o(.text) for OS_CPU_SR_Save
    os_core.o(i.OSTimeTick) refers to os_core.o(.data) for OSTime
    os_core.o(i.OS_EventTaskRdy) refers to os_core.o(i.OS_EventTaskRemove) for OS_EventTaskRemove
    os_core.o(i.OS_EventTaskRdy) refers to os_core.o(.constdata) for OSUnMapTbl
    os_core.o(i.OS_EventTaskRdy) refers to os_core.o(.bss) for OSTCBPrioTbl
    os_core.o(i.OS_EventTaskRdy) refers to os_core.o(.data) for OSRdyGrp
    os_core.o(i.OS_EventTaskWait) refers to os_core.o(.data) for OSTCBCur
    os_core.o(i.OS_InitEventList) refers to os_core.o(i.OS_MemClr) for OS_MemClr
    os_core.o(i.OS_InitEventList) refers to os_core.o(.bss) for OSEventTbl
    os_core.o(i.OS_InitEventList) refers to os_core.o(.data) for OSEventFreeList
    os_core.o(i.OS_InitMisc) refers to os_core.o(.data) for OSTime
    os_core.o(i.OS_InitRdyList) refers to os_core.o(.data) for OSRdyGrp
    os_core.o(i.OS_InitTCBList) refers to os_core.o(i.OS_MemClr) for OS_MemClr
    os_core.o(i.OS_InitTCBList) refers to os_core.o(.bss) for OSTCBTbl
    os_core.o(i.OS_InitTCBList) refers to os_core.o(.data) for OSTCBList
    os_core.o(i.OS_InitTaskIdle) refers to os_task.o(i.OSTaskCreateExt) for OSTaskCreateExt
    os_core.o(i.OS_InitTaskIdle) refers to os_task.o(i.OSTaskNameSet) for OSTaskNameSet
    os_core.o(i.OS_InitTaskIdle) refers to os_core.o(.bss) for OSTaskIdleStk
    os_core.o(i.OS_InitTaskIdle) refers to os_core.o(i.OS_TaskIdle) for OS_TaskIdle
    os_core.o(i.OS_InitTaskStat) refers to os_task.o(i.OSTaskCreateExt) for OSTaskCreateExt
    os_core.o(i.OS_InitTaskStat) refers to os_task.o(i.OSTaskNameSet) for OSTaskNameSet
    os_core.o(i.OS_InitTaskStat) refers to os_core.o(.bss) for OSTaskStatStk
    os_core.o(i.OS_InitTaskStat) refers to os_core.o(i.OS_TaskStat) for OS_TaskStat
    os_core.o(i.OS_Sched) refers to os_cpu_a.o(.text) for OS_CPU_SR_Save
    os_core.o(i.OS_Sched) refers to os_core.o(i.OS_SchedNew) for OS_SchedNew
    os_core.o(i.OS_Sched) refers to os_core.o(.data) for OSIntNesting
    os_core.o(i.OS_Sched) refers to os_core.o(.bss) for OSTCBPrioTbl
    os_core.o(i.OS_SchedNew) refers to os_core.o(.constdata) for OSUnMapTbl
    os_core.o(i.OS_SchedNew) refers to os_core.o(.data) for OSRdyGrp
    os_core.o(i.OS_TCBInit) refers to os_cpu_a.o(.text) for OS_CPU_SR_Save
    os_core.o(i.OS_TCBInit) refers to os_cpu_c.o(i.OSTCBInitHook) for OSTCBInitHook
    os_core.o(i.OS_TCBInit) refers to os_cpu_c.o(i.OSTaskCreateHook) for OSTaskCreateHook
    os_core.o(i.OS_TCBInit) refers to os_core.o(.data) for OSTCBFreeList
    os_core.o(i.OS_TCBInit) refers to os_core.o(.bss) for OSTCBPrioTbl
    os_core.o(i.OS_TaskIdle) refers to os_cpu_a.o(.text) for OS_CPU_SR_Save
    os_core.o(i.OS_TaskIdle) refers to os_cpu_c.o(i.OSTaskIdleHook) for OSTaskIdleHook
    os_core.o(i.OS_TaskIdle) refers to os_core.o(.data) for OSIdleCtr
    os_core.o(i.OS_TaskStat) refers to os_time.o(i.OSTimeDly) for OSTimeDly
    os_core.o(i.OS_TaskStat) refers to os_task.o(i.OSTaskSuspend) for OSTaskSuspend
    os_core.o(i.OS_TaskStat) refers to os_cpu_a.o(.text) for OS_CPU_SR_Save
    os_core.o(i.OS_TaskStat) refers to os_cpu_c.o(i.OSTaskStatHook) for OSTaskStatHook
    os_core.o(i.OS_TaskStat) refers to os_core.o(i.OS_TaskStatStkChk) for OS_TaskStatStkChk
    os_core.o(i.OS_TaskStat) refers to os_core.o(.data) for OSStatRdy
    os_core.o(i.OS_TaskStatStkChk) refers to os_task.o(i.OSTaskStkChk) for OSTaskStkChk
    os_core.o(i.OS_TaskStatStkChk) refers to os_core.o(.bss) for OSTCBPrioTbl
    os_flag.o(i.OSFlagAccept) refers to os_cpu_a.o(.text) for OS_CPU_SR_Save
    os_flag.o(i.OSFlagCreate) refers to os_cpu_a.o(.text) for OS_CPU_SR_Save
    os_flag.o(i.OSFlagCreate) refers to os_core.o(.data) for OSIntNesting
    os_flag.o(i.OSFlagDel) refers to os_cpu_a.o(.text) for OS_CPU_SR_Save
    os_flag.o(i.OSFlagDel) refers to os_flag.o(i.OS_FlagTaskRdy) for OS_FlagTaskRdy
    os_flag.o(i.OSFlagDel) refers to os_core.o(i.OS_Sched) for OS_Sched
    os_flag.o(i.OSFlagDel) refers to os_core.o(.data) for OSIntNesting
    os_flag.o(i.OSFlagNameGet) refers to os_cpu_a.o(.text) for OS_CPU_SR_Save
    os_flag.o(i.OSFlagNameGet) refers to os_core.o(i.OS_StrLen) for OS_StrLen
    os_flag.o(i.OSFlagNameGet) refers to os_core.o(.data) for OSIntNesting
    os_flag.o(i.OSFlagNameSet) refers to os_cpu_a.o(.text) for OS_CPU_SR_Save
    os_flag.o(i.OSFlagNameSet) refers to os_core.o(.data) for OSIntNesting
    os_flag.o(i.OSFlagPend) refers to os_cpu_a.o(.text) for OS_CPU_SR_Save
    os_flag.o(i.OSFlagPend) refers to os_flag.o(i.OS_FlagBlock) for OS_FlagBlock
    os_flag.o(i.OSFlagPend) refers to os_core.o(i.OS_Sched) for OS_Sched
    os_flag.o(i.OSFlagPend) refers to os_flag.o(i.OS_FlagUnlink) for OS_FlagUnlink
    os_flag.o(i.OSFlagPend) refers to os_core.o(.data) for OSIntNesting
    os_flag.o(i.OSFlagPendGetFlagsRdy) refers to os_cpu_a.o(.text) for OS_CPU_SR_Save
    os_flag.o(i.OSFlagPendGetFlagsRdy) refers to os_core.o(.data) for OSTCBCur
    os_flag.o(i.OSFlagPost) refers to os_cpu_a.o(.text) for OS_CPU_SR_Save
    os_flag.o(i.OSFlagPost) refers to os_flag.o(i.OS_FlagTaskRdy) for OS_FlagTaskRdy
    os_flag.o(i.OSFlagPost) refers to os_core.o(i.OS_Sched) for OS_Sched
    os_flag.o(i.OSFlagQuery) refers to os_cpu_a.o(.text) for OS_CPU_SR_Save
    os_flag.o(i.OS_FlagBlock) refers to os_core.o(.data) for OSTCBCur
    os_flag.o(i.OS_FlagInit) refers to os_core.o(i.OS_MemClr) for OS_MemClr
    os_flag.o(i.OS_FlagInit) refers to os_core.o(.bss) for OSFlagTbl
    os_flag.o(i.OS_FlagInit) refers to os_core.o(.data) for OSFlagFreeList
    os_flag.o(i.OS_FlagTaskRdy) refers to os_flag.o(i.OS_FlagUnlink) for OS_FlagUnlink
    os_flag.o(i.OS_FlagTaskRdy) refers to os_core.o(.data) for OSRdyGrp
    os_mbox.o(i.OSMboxAccept) refers to os_cpu_a.o(.text) for OS_CPU_SR_Save
    os_mbox.o(i.OSMboxCreate) refers to os_cpu_a.o(.text) for OS_CPU_SR_Save
    os_mbox.o(i.OSMboxCreate) refers to os_core.o(i.OS_EventWaitListInit) for OS_EventWaitListInit
    os_mbox.o(i.OSMboxCreate) refers to os_core.o(.data) for OSIntNesting
    os_mbox.o(i.OSMboxDel) refers to os_cpu_a.o(.text) for OS_CPU_SR_Save
    os_mbox.o(i.OSMboxDel) refers to os_core.o(i.OS_EventTaskRdy) for OS_EventTaskRdy
    os_mbox.o(i.OSMboxDel) refers to os_core.o(i.OS_Sched) for OS_Sched
    os_mbox.o(i.OSMboxDel) refers to os_core.o(.data) for OSIntNesting
    os_mbox.o(i.OSMboxPend) refers to os_cpu_a.o(.text) for OS_CPU_SR_Save
    os_mbox.o(i.OSMboxPend) refers to os_core.o(i.OS_EventTaskWait) for OS_EventTaskWait
    os_mbox.o(i.OSMboxPend) refers to os_core.o(i.OS_Sched) for OS_Sched
    os_mbox.o(i.OSMboxPend) refers to os_core.o(i.OS_EventTaskRemove) for OS_EventTaskRemove
    os_mbox.o(i.OSMboxPend) refers to os_core.o(.data) for OSIntNesting
    os_mbox.o(i.OSMboxPendAbort) refers to os_cpu_a.o(.text) for OS_CPU_SR_Save
    os_mbox.o(i.OSMboxPendAbort) refers to os_core.o(i.OS_EventTaskRdy) for OS_EventTaskRdy
    os_mbox.o(i.OSMboxPendAbort) refers to os_core.o(i.OS_Sched) for OS_Sched
    os_mbox.o(i.OSMboxPost) refers to os_cpu_a.o(.text) for OS_CPU_SR_Save
    os_mbox.o(i.OSMboxPost) refers to os_core.o(i.OS_EventTaskRdy) for OS_EventTaskRdy
    os_mbox.o(i.OSMboxPost) refers to os_core.o(i.OS_Sched) for OS_Sched
    os_mbox.o(i.OSMboxPostOpt) refers to os_cpu_a.o(.text) for OS_CPU_SR_Save
    os_mbox.o(i.OSMboxPostOpt) refers to os_core.o(i.OS_EventTaskRdy) for OS_EventTaskRdy
    os_mbox.o(i.OSMboxPostOpt) refers to os_core.o(i.OS_Sched) for OS_Sched
    os_mbox.o(i.OSMboxQuery) refers to os_cpu_a.o(.text) for OS_CPU_SR_Save
    os_mutex.o(i.OSMutexAccept) refers to os_cpu_a.o(.text) for OS_CPU_SR_Save
    os_mutex.o(i.OSMutexAccept) refers to os_core.o(.data) for OSIntNesting
    os_mutex.o(i.OSMutexCreate) refers to os_cpu_a.o(.text) for OS_CPU_SR_Save
    os_mutex.o(i.OSMutexCreate) refers to os_core.o(i.OS_EventWaitListInit) for OS_EventWaitListInit
    os_mutex.o(i.OSMutexCreate) refers to os_core.o(.data) for OSIntNesting
    os_mutex.o(i.OSMutexCreate) refers to os_core.o(.bss) for OSTCBPrioTbl
    os_mutex.o(i.OSMutexDel) refers to os_cpu_a.o(.text) for OS_CPU_SR_Save
    os_mutex.o(i.OSMutexDel) refers to os_mutex.o(i.OSMutex_RdyAtPrio) for OSMutex_RdyAtPrio
    os_mutex.o(i.OSMutexDel) refers to os_core.o(i.OS_EventTaskRdy) for OS_EventTaskRdy
    os_mutex.o(i.OSMutexDel) refers to os_core.o(i.OS_Sched) for OS_Sched
    os_mutex.o(i.OSMutexDel) refers to os_core.o(.data) for OSIntNesting
    os_mutex.o(i.OSMutexDel) refers to os_core.o(.bss) for OSTCBPrioTbl
    os_mutex.o(i.OSMutexPend) refers to os_cpu_a.o(.text) for OS_CPU_SR_Save
    os_mutex.o(i.OSMutexPend) refers to os_core.o(i.OS_EventTaskWait) for OS_EventTaskWait
    os_mutex.o(i.OSMutexPend) refers to os_core.o(i.OS_Sched) for OS_Sched
    os_mutex.o(i.OSMutexPend) refers to os_core.o(i.OS_EventTaskRemove) for OS_EventTaskRemove
    os_mutex.o(i.OSMutexPend) refers to os_core.o(.data) for OSIntNesting
    os_mutex.o(i.OSMutexPend) refers to os_core.o(.bss) for OSTCBPrioTbl
    os_mutex.o(i.OSMutexPost) refers to os_cpu_a.o(.text) for OS_CPU_SR_Save
    os_mutex.o(i.OSMutexPost) refers to os_mutex.o(i.OSMutex_RdyAtPrio) for OSMutex_RdyAtPrio
    os_mutex.o(i.OSMutexPost) refers to os_core.o(i.OS_EventTaskRdy) for OS_EventTaskRdy
    os_mutex.o(i.OSMutexPost) refers to os_core.o(i.OS_Sched) for OS_Sched
    os_mutex.o(i.OSMutexPost) refers to os_core.o(.data) for OSIntNesting
    os_mutex.o(i.OSMutexPost) refers to os_core.o(.bss) for OSTCBPrioTbl
    os_mutex.o(i.OSMutexQuery) refers to os_cpu_a.o(.text) for OS_CPU_SR_Save
    os_mutex.o(i.OSMutexQuery) refers to os_core.o(.data) for OSIntNesting
    os_mutex.o(i.OSMutex_RdyAtPrio) refers to os_core.o(.data) for OSRdyTbl
    os_mutex.o(i.OSMutex_RdyAtPrio) refers to os_core.o(.bss) for OSTCBPrioTbl
    os_q.o(i.OSQAccept) refers to os_cpu_a.o(.text) for OS_CPU_SR_Save
    os_q.o(i.OSQCreate) refers to os_cpu_a.o(.text) for OS_CPU_SR_Save
    os_q.o(i.OSQCreate) refers to os_core.o(i.OS_EventWaitListInit) for OS_EventWaitListInit
    os_q.o(i.OSQCreate) refers to os_core.o(.data) for OSIntNesting
    os_q.o(i.OSQDel) refers to os_cpu_a.o(.text) for OS_CPU_SR_Save
    os_q.o(i.OSQDel) refers to os_core.o(i.OS_EventTaskRdy) for OS_EventTaskRdy
    os_q.o(i.OSQDel) refers to os_core.o(i.OS_Sched) for OS_Sched
    os_q.o(i.OSQDel) refers to os_core.o(.data) for OSIntNesting
    os_q.o(i.OSQFlush) refers to os_cpu_a.o(.text) for OS_CPU_SR_Save
    os_q.o(i.OSQPend) refers to os_cpu_a.o(.text) for OS_CPU_SR_Save
    os_q.o(i.OSQPend) refers to os_core.o(i.OS_EventTaskWait) for OS_EventTaskWait
    os_q.o(i.OSQPend) refers to os_core.o(i.OS_Sched) for OS_Sched
    os_q.o(i.OSQPend) refers to os_core.o(i.OS_EventTaskRemove) for OS_EventTaskRemove
    os_q.o(i.OSQPend) refers to os_core.o(.data) for OSIntNesting
    os_q.o(i.OSQPendAbort) refers to os_cpu_a.o(.text) for OS_CPU_SR_Save
    os_q.o(i.OSQPendAbort) refers to os_core.o(i.OS_EventTaskRdy) for OS_EventTaskRdy
    os_q.o(i.OSQPendAbort) refers to os_core.o(i.OS_Sched) for OS_Sched
    os_q.o(i.OSQPost) refers to os_cpu_a.o(.text) for OS_CPU_SR_Save
    os_q.o(i.OSQPost) refers to os_core.o(i.OS_EventTaskRdy) for OS_EventTaskRdy
    os_q.o(i.OSQPost) refers to os_core.o(i.OS_Sched) for OS_Sched
    os_q.o(i.OSQPostFront) refers to os_cpu_a.o(.text) for OS_CPU_SR_Save
    os_q.o(i.OSQPostFront) refers to os_core.o(i.OS_EventTaskRdy) for OS_EventTaskRdy
    os_q.o(i.OSQPostFront) refers to os_core.o(i.OS_Sched) for OS_Sched
    os_q.o(i.OSQPostOpt) refers to os_cpu_a.o(.text) for OS_CPU_SR_Save
    os_q.o(i.OSQPostOpt) refers to os_core.o(i.OS_EventTaskRdy) for OS_EventTaskRdy
    os_q.o(i.OSQPostOpt) refers to os_core.o(i.OS_Sched) for OS_Sched
    os_q.o(i.OSQQuery) refers to os_cpu_a.o(.text) for OS_CPU_SR_Save
    os_q.o(i.OS_QInit) refers to os_core.o(i.OS_MemClr) for OS_MemClr
    os_q.o(i.OS_QInit) refers to os_core.o(.bss) for OSQTbl
    os_q.o(i.OS_QInit) refers to os_core.o(.data) for OSQFreeList
    os_sem.o(i.OSSemAccept) refers to os_cpu_a.o(.text) for OS_CPU_SR_Save
    os_sem.o(i.OSSemCreate) refers to os_cpu_a.o(.text) for OS_CPU_SR_Save
    os_sem.o(i.OSSemCreate) refers to os_core.o(i.OS_EventWaitListInit) for OS_EventWaitListInit
    os_sem.o(i.OSSemCreate) refers to os_core.o(.data) for OSIntNesting
    os_sem.o(i.OSSemDel) refers to os_cpu_a.o(.text) for OS_CPU_SR_Save
    os_sem.o(i.OSSemDel) refers to os_core.o(i.OS_EventTaskRdy) for OS_EventTaskRdy
    os_sem.o(i.OSSemDel) refers to os_core.o(i.OS_Sched) for OS_Sched
    os_sem.o(i.OSSemDel) refers to os_core.o(.data) for OSIntNesting
    os_sem.o(i.OSSemPend) refers to os_cpu_a.o(.text) for OS_CPU_SR_Save
    os_sem.o(i.OSSemPend) refers to os_core.o(i.OS_EventTaskWait) for OS_EventTaskWait
    os_sem.o(i.OSSemPend) refers to os_core.o(i.OS_Sched) for OS_Sched
    os_sem.o(i.OSSemPend) refers to os_core.o(i.OS_EventTaskRemove) for OS_EventTaskRemove
    os_sem.o(i.OSSemPend) refers to os_core.o(.data) for OSIntNesting
    os_sem.o(i.OSSemPendAbort) refers to os_cpu_a.o(.text) for OS_CPU_SR_Save
    os_sem.o(i.OSSemPendAbort) refers to os_core.o(i.OS_EventTaskRdy) for OS_EventTaskRdy
    os_sem.o(i.OSSemPendAbort) refers to os_core.o(i.OS_Sched) for OS_Sched
    os_sem.o(i.OSSemPost) refers to os_cpu_a.o(.text) for OS_CPU_SR_Save
    os_sem.o(i.OSSemPost) refers to os_core.o(i.OS_EventTaskRdy) for OS_EventTaskRdy
    os_sem.o(i.OSSemPost) refers to os_core.o(i.OS_Sched) for OS_Sched
    os_sem.o(i.OSSemQuery) refers to os_cpu_a.o(.text) for OS_CPU_SR_Save
    os_sem.o(i.OSSemSet) refers to os_cpu_a.o(.text) for OS_CPU_SR_Save
    os_task.o(i.OSTaskChangePrio) refers to os_cpu_a.o(.text) for OS_CPU_SR_Save
    os_task.o(i.OSTaskChangePrio) refers to os_core.o(i.OS_Sched) for OS_Sched
    os_task.o(i.OSTaskChangePrio) refers to os_core.o(.bss) for OSTCBPrioTbl
    os_task.o(i.OSTaskChangePrio) refers to os_core.o(.data) for OSTCBCur
    os_task.o(i.OSTaskCreate) refers to os_cpu_a.o(.text) for OS_CPU_SR_Save
    os_task.o(i.OSTaskCreate) refers to os_cpu_c.o(i.OSTaskStkInit) for OSTaskStkInit
    os_task.o(i.OSTaskCreate) refers to os_core.o(i.OS_TCBInit) for OS_TCBInit
    os_task.o(i.OSTaskCreate) refers to os_core.o(i.OS_Sched) for OS_Sched
    os_task.o(i.OSTaskCreate) refers to os_core.o(.data) for OSIntNesting
    os_task.o(i.OSTaskCreate) refers to os_core.o(.bss) for OSTCBPrioTbl
    os_task.o(i.OSTaskCreateExt) refers to os_cpu_a.o(.text) for OS_CPU_SR_Save
    os_task.o(i.OSTaskCreateExt) refers to os_task.o(i.OS_TaskStkClr) for OS_TaskStkClr
    os_task.o(i.OSTaskCreateExt) refers to os_cpu_c.o(i.OSTaskStkInit) for OSTaskStkInit
    os_task.o(i.OSTaskCreateExt) refers to os_core.o(i.OS_TCBInit) for OS_TCBInit
    os_task.o(i.OSTaskCreateExt) refers to os_core.o(i.OS_Sched) for OS_Sched
    os_task.o(i.OSTaskCreateExt) refers to os_core.o(.data) for OSIntNesting
    os_task.o(i.OSTaskCreateExt) refers to os_core.o(.bss) for OSTCBPrioTbl
    os_task.o(i.OSTaskDel) refers to os_cpu_a.o(.text) for OS_CPU_SR_Save
    os_task.o(i.OSTaskDel) refers to os_core.o(i.OS_EventTaskRemove) for OS_EventTaskRemove
    os_task.o(i.OSTaskDel) refers to os_flag.o(i.OS_FlagUnlink) for OS_FlagUnlink
    os_task.o(i.OSTaskDel) refers to os_core.o(i.OS_Dummy) for OS_Dummy
    os_task.o(i.OSTaskDel) refers to os_cpu_c.o(i.OSTaskDelHook) for OSTaskDelHook
    os_task.o(i.OSTaskDel) refers to os_core.o(i.OS_Sched) for OS_Sched
    os_task.o(i.OSTaskDel) refers to os_core.o(.data) for OSIntNesting
    os_task.o(i.OSTaskDel) refers to os_core.o(.bss) for OSTCBPrioTbl
    os_task.o(i.OSTaskDelReq) refers to os_cpu_a.o(.text) for OS_CPU_SR_Save
    os_task.o(i.OSTaskDelReq) refers to os_core.o(.data) for OSTCBCur
    os_task.o(i.OSTaskDelReq) refers to os_core.o(.bss) for OSTCBPrioTbl
    os_task.o(i.OSTaskNameGet) refers to os_cpu_a.o(.text) for OS_CPU_SR_Save
    os_task.o(i.OSTaskNameGet) refers to os_core.o(i.OS_StrLen) for OS_StrLen
    os_task.o(i.OSTaskNameGet) refers to os_core.o(.data) for OSIntNesting
    os_task.o(i.OSTaskNameGet) refers to os_core.o(.bss) for OSTCBPrioTbl
    os_task.o(i.OSTaskNameSet) refers to os_cpu_a.o(.text) for OS_CPU_SR_Save
    os_task.o(i.OSTaskNameSet) refers to os_core.o(.data) for OSIntNesting
    os_task.o(i.OSTaskNameSet) refers to os_core.o(.bss) for OSTCBPrioTbl
    os_task.o(i.OSTaskQuery) refers to os_cpu_a.o(.text) for OS_CPU_SR_Save
    os_task.o(i.OSTaskQuery) refers to os_core.o(i.OS_MemCopy) for OS_MemCopy
    os_task.o(i.OSTaskQuery) refers to os_core.o(.data) for OSTCBCur
    os_task.o(i.OSTaskQuery) refers to os_core.o(.bss) for OSTCBPrioTbl
    os_task.o(i.OSTaskRegGet) refers to os_cpu_a.o(.text) for OS_CPU_SR_Save
    os_task.o(i.OSTaskRegGet) refers to os_core.o(.data) for OSTCBCur
    os_task.o(i.OSTaskRegGet) refers to os_core.o(.bss) for OSTCBPrioTbl
    os_task.o(i.OSTaskRegSet) refers to os_cpu_a.o(.text) for OS_CPU_SR_Save
    os_task.o(i.OSTaskRegSet) refers to os_core.o(.data) for OSTCBCur
    os_task.o(i.OSTaskRegSet) refers to os_core.o(.bss) for OSTCBPrioTbl
    os_task.o(i.OSTaskResume) refers to os_cpu_a.o(.text) for OS_CPU_SR_Save
    os_task.o(i.OSTaskResume) refers to os_core.o(i.OS_Sched) for OS_Sched
    os_task.o(i.OSTaskResume) refers to os_core.o(.bss) for OSTCBPrioTbl
    os_task.o(i.OSTaskResume) refers to os_core.o(.data) for OSRdyGrp
    os_task.o(i.OSTaskStkChk) refers to os_cpu_a.o(.text) for OS_CPU_SR_Save
    os_task.o(i.OSTaskStkChk) refers to os_core.o(.data) for OSTCBCur
    os_task.o(i.OSTaskStkChk) refers to os_core.o(.bss) for OSTCBPrioTbl
    os_task.o(i.OSTaskSuspend) refers to os_cpu_a.o(.text) for OS_CPU_SR_Save
    os_task.o(i.OSTaskSuspend) refers to os_core.o(i.OS_Sched) for OS_Sched
    os_task.o(i.OSTaskSuspend) refers to os_core.o(.data) for OSTCBCur
    os_task.o(i.OSTaskSuspend) refers to os_core.o(.bss) for OSTCBPrioTbl
    os_task.o(i.OS_TaskReturn) refers to os_cpu_c.o(i.OSTaskReturnHook) for OSTaskReturnHook
    os_task.o(i.OS_TaskReturn) refers to os_task.o(i.OSTaskDel) for OSTaskDel
    os_task.o(i.OS_TaskReturn) refers to os_core.o(.data) for OSTCBCur
    os_time.o(i.OSTimeDly) refers to os_cpu_a.o(.text) for OS_CPU_SR_Save
    os_time.o(i.OSTimeDly) refers to os_core.o(i.OS_Sched) for OS_Sched
    os_time.o(i.OSTimeDly) refers to os_core.o(.data) for OSIntNesting
    os_time.o(i.OSTimeDlyHMSM) refers to os_time.o(i.OSTimeDly) for OSTimeDly
    os_time.o(i.OSTimeDlyHMSM) refers to os_core.o(.data) for OSIntNesting
    os_time.o(i.OSTimeDlyResume) refers to os_cpu_a.o(.text) for OS_CPU_SR_Save
    os_time.o(i.OSTimeDlyResume) refers to os_core.o(i.OS_Sched) for OS_Sched
    os_time.o(i.OSTimeDlyResume) refers to os_core.o(.bss) for OSTCBPrioTbl
    os_time.o(i.OSTimeDlyResume) refers to os_core.o(.data) for OSRdyGrp
    os_time.o(i.OSTimeGet) refers to os_cpu_a.o(.text) for OS_CPU_SR_Save
    os_time.o(i.OSTimeGet) refers to os_core.o(.data) for OSTime
    os_time.o(i.OSTimeSet) refers to os_cpu_a.o(.text) for OS_CPU_SR_Save
    os_time.o(i.OSTimeSet) refers to os_core.o(.data) for OSTime
    os_tmr.o(i.OSTmrCreate) refers to os_core.o(i.OSSchedLock) for OSSchedLock
    os_tmr.o(i.OSTmrCreate) refers to os_tmr.o(i.OSTmr_Alloc) for OSTmr_Alloc
    os_tmr.o(i.OSTmrCreate) refers to os_core.o(i.OSSchedUnlock) for OSSchedUnlock
    os_tmr.o(i.OSTmrCreate) refers to os_core.o(.data) for OSIntNesting
    os_tmr.o(i.OSTmrDel) refers to os_core.o(i.OSSchedLock) for OSSchedLock
    os_tmr.o(i.OSTmrDel) refers to os_tmr.o(i.OSTmr_Unlink) for OSTmr_Unlink
    os_tmr.o(i.OSTmrDel) refers to os_tmr.o(i.OSTmr_Free) for OSTmr_Free
    os_tmr.o(i.OSTmrDel) refers to os_core.o(i.OSSchedUnlock) for OSSchedUnlock
    os_tmr.o(i.OSTmrDel) refers to os_core.o(.data) for OSIntNesting
    os_tmr.o(i.OSTmrNameGet) refers to os_core.o(i.OSSchedLock) for OSSchedLock
    os_tmr.o(i.OSTmrNameGet) refers to os_core.o(i.OS_StrLen) for OS_StrLen
    os_tmr.o(i.OSTmrNameGet) refers to os_core.o(i.OSSchedUnlock) for OSSchedUnlock
    os_tmr.o(i.OSTmrNameGet) refers to os_core.o(.data) for OSIntNesting
    os_tmr.o(i.OSTmrRemainGet) refers to os_core.o(i.OSSchedLock) for OSSchedLock
    os_tmr.o(i.OSTmrRemainGet) refers to os_core.o(i.OSSchedUnlock) for OSSchedUnlock
    os_tmr.o(i.OSTmrRemainGet) refers to os_core.o(.data) for OSIntNesting
    os_tmr.o(i.OSTmrSignal) refers to os_sem.o(i.OSSemPost) for OSSemPost
    os_tmr.o(i.OSTmrSignal) refers to os_core.o(.data) for OSTmrSemSignal
    os_tmr.o(i.OSTmrStart) refers to os_core.o(i.OSSchedLock) for OSSchedLock
    os_tmr.o(i.OSTmrStart) refers to os_tmr.o(i.OSTmr_Unlink) for OSTmr_Unlink
    os_tmr.o(i.OSTmrStart) refers to os_tmr.o(i.OSTmr_Link) for OSTmr_Link
    os_tmr.o(i.OSTmrStart) refers to os_core.o(i.OSSchedUnlock) for OSSchedUnlock
    os_tmr.o(i.OSTmrStart) refers to os_core.o(.data) for OSIntNesting
    os_tmr.o(i.OSTmrStateGet) refers to os_core.o(i.OSSchedLock) for OSSchedLock
    os_tmr.o(i.OSTmrStateGet) refers to os_core.o(i.OSSchedUnlock) for OSSchedUnlock
    os_tmr.o(i.OSTmrStateGet) refers to os_core.o(.data) for OSIntNesting
    os_tmr.o(i.OSTmrStop) refers to os_core.o(i.OSSchedLock) for OSSchedLock
    os_tmr.o(i.OSTmrStop) refers to os_tmr.o(i.OSTmr_Unlink) for OSTmr_Unlink
    os_tmr.o(i.OSTmrStop) refers to os_core.o(i.OSSchedUnlock) for OSSchedUnlock
    os_tmr.o(i.OSTmrStop) refers to os_core.o(.data) for OSIntNesting
    os_tmr.o(i.OSTmr_Alloc) refers to os_core.o(.data) for OSTmrFreeList
    os_tmr.o(i.OSTmr_Free) refers to os_core.o(.data) for OSTmrFreeList
    os_tmr.o(i.OSTmr_Init) refers to os_core.o(i.OS_MemClr) for OS_MemClr
    os_tmr.o(i.OSTmr_Init) refers to os_sem.o(i.OSSemCreate) for OSSemCreate
    os_tmr.o(i.OSTmr_Init) refers to os_tmr.o(i.OSTmr_InitTask) for OSTmr_InitTask
    os_tmr.o(i.OSTmr_Init) refers to os_core.o(.bss) for OSTmrTbl
    os_tmr.o(i.OSTmr_Init) refers to os_core.o(.data) for OSTmrTime
    os_tmr.o(i.OSTmr_InitTask) refers to os_task.o(i.OSTaskCreateExt) for OSTaskCreateExt
    os_tmr.o(i.OSTmr_InitTask) refers to os_task.o(i.OSTaskNameSet) for OSTaskNameSet
    os_tmr.o(i.OSTmr_InitTask) refers to os_core.o(.bss) for OSTmrTaskStk
    os_tmr.o(i.OSTmr_InitTask) refers to os_tmr.o(i.OSTmr_Task) for OSTmr_Task
    os_tmr.o(i.OSTmr_Link) refers to os_core.o(.data) for OSTmrTime
    os_tmr.o(i.OSTmr_Link) refers to os_core.o(.bss) for OSTmrWheelTbl
    os_tmr.o(i.OSTmr_Task) refers to os_sem.o(i.OSSemPend) for OSSemPend
    os_tmr.o(i.OSTmr_Task) refers to os_core.o(i.OSSchedLock) for OSSchedLock
    os_tmr.o(i.OSTmr_Task) refers to os_tmr.o(i.OSTmr_Unlink) for OSTmr_Unlink
    os_tmr.o(i.OSTmr_Task) refers to os_tmr.o(i.OSTmr_Link) for OSTmr_Link
    os_tmr.o(i.OSTmr_Task) refers to os_core.o(i.OSSchedUnlock) for OSSchedUnlock
    os_tmr.o(i.OSTmr_Task) refers to os_core.o(.data) for OSTmrSemSignal
    os_tmr.o(i.OSTmr_Task) refers to os_core.o(.bss) for OSTmrWheelTbl
    os_tmr.o(i.OSTmr_Unlink) refers to os_core.o(.bss) for OSTmrWheelTbl
    os_cpu_c.o(i.OSInitHookBegin) refers to os_cpu_c.o(.data) for OSTmrCtr
    os_cpu_c.o(i.OSTimeTickHook) refers to os_tmr.o(i.OSTmrSignal) for OSTmrSignal
    os_cpu_c.o(i.OSTimeTickHook) refers to os_cpu_c.o(.data) for OSTmrCtr
    os_cpu_a.o(.text) refers to os_core.o(.data) for OSRunning
    os_cpu_a.o(.text) refers to os_cpu_c.o(i.OSTaskSwHook) for OSTaskSwHook
    can.o(i.CAN_FILTERINIT) refers to _printf_pad.o(.text) for _printf_pre_padding
    can.o(i.CAN_FILTERINIT) refers to _printf_percent.o(.ARM.Collect$$_printf_percent$$00000000) for _printf_percent
    can.o(i.CAN_FILTERINIT) refers to _printf_x.o(.ARM.Collect$$_printf_percent$$0000000C) for _printf_x
    can.o(i.CAN_FILTERINIT) refers to _printf_hex_int_ll_ptr.o(.text) for _printf_longlong_hex
    can.o(i.CAN_FILTERINIT) refers to stm32f10x_can.o(i.CAN_FilterInit) for CAN_FilterInit
    can.o(i.CAN_FILTERINIT) refers to __2printf.o(.text) for __2printf
    can.o(i.CAN_GPIO_Config) refers to stm32f10x_rcc.o(i.RCC_APB2PeriphClockCmd) for RCC_APB2PeriphClockCmd
    can.o(i.CAN_GPIO_Config) refers to stm32f10x_rcc.o(i.RCC_APB1PeriphClockCmd) for RCC_APB1PeriphClockCmd
    can.o(i.CAN_GPIO_Config) refers to stm32f10x_gpio.o(i.GPIO_Init) for GPIO_Init
    can.o(i.CAN_INIT) refers to _printf_percent.o(.ARM.Collect$$_printf_percent$$00000000) for _printf_percent
    can.o(i.CAN_INIT) refers to _printf_d.o(.ARM.Collect$$_printf_percent$$00000009) for _printf_d
    can.o(i.CAN_INIT) refers to _printf_s.o(.ARM.Collect$$_printf_percent$$00000014) for _printf_s
    can.o(i.CAN_INIT) refers to _printf_dec.o(.text) for _printf_int_dec
    can.o(i.CAN_INIT) refers to _printf_str.o(.text) for _printf_str
    can.o(i.CAN_INIT) refers to stm32f10x_can.o(i.CAN_DeInit) for CAN_DeInit
    can.o(i.CAN_INIT) refers to stm32f10x_can.o(i.CAN_StructInit) for CAN_StructInit
    can.o(i.CAN_INIT) refers to stm32f10x_can.o(i.CAN_Init) for CAN_Init
    can.o(i.CAN_INIT) refers to stm32f10x_can.o(i.CAN_ITConfig) for CAN_ITConfig
    can.o(i.CAN_INIT) refers to __2printf.o(.text) for __2printf
    can.o(i.CAN_INIT) refers to can.o(.constdata) for __func__
    can.o(i.CAN_NVIC_Configuration) refers to misc.o(i.NVIC_SetVectorTable) for NVIC_SetVectorTable
    can.o(i.CAN_NVIC_Configuration) refers to misc.o(i.NVIC_Init) for NVIC_Init
    can.o(i.CAN_TRANSMIT) refers to rt_memcpy_v6.o(.text) for __aeabi_memcpy
    can.o(i.CAN_TRANSMIT) refers to stm32f10x_can.o(i.CAN_Transmit) for CAN_Transmit
    can.o(i.USB_LP_CAN1_RX0_IRQHandler) refers to os_cpu_a.o(.text) for OS_CPU_SR_Save
    can.o(i.USB_LP_CAN1_RX0_IRQHandler) refers to stm32f10x_can.o(i.CAN_Receive) for CAN_Receive
    can.o(i.USB_LP_CAN1_RX0_IRQHandler) refers to can_task.o(i.resolve_can_message) for resolve_can_message
    can.o(i.can_tx) refers to rt_memcpy_v6.o(.text) for __aeabi_memcpy
    can.o(i.can_tx) refers to stm32f10x_can.o(i.CAN_Transmit) for CAN_Transmit
    led.o(i.LED_Init) refers to stm32f10x_rcc.o(i.RCC_APB2PeriphClockCmd) for RCC_APB2PeriphClockCmd
    led.o(i.LED_Init) refers to stm32f10x_gpio.o(i.GPIO_Init) for GPIO_Init
    led.o(i.LED_Init) refers to stm32f10x_gpio.o(i.GPIO_SetBits) for GPIO_SetBits
    usart2.o(i.TIM4_IRQHandler) refers to stm32f10x_tim.o(i.TIM_GetITStatus) for TIM_GetITStatus
    usart2.o(i.TIM4_IRQHandler) refers to stm32f10x_tim.o(i.TIM_ClearITPendingBit) for TIM_ClearITPendingBit
    usart2.o(i.TIM4_IRQHandler) refers to usart2.o(i.TIM4_Set) for TIM4_Set
    usart2.o(i.TIM4_IRQHandler) refers to usart2.o(.data) for USART2_RX_STA
    usart2.o(i.TIM4_Init) refers to stm32f10x_rcc.o(i.RCC_APB1PeriphClockCmd) for RCC_APB1PeriphClockCmd
    usart2.o(i.TIM4_Init) refers to stm32f10x_tim.o(i.TIM_TimeBaseInit) for TIM_TimeBaseInit
    usart2.o(i.TIM4_Init) refers to stm32f10x_tim.o(i.TIM_ITConfig) for TIM_ITConfig
    usart2.o(i.TIM4_Init) refers to misc.o(i.NVIC_Init) for NVIC_Init
    usart2.o(i.TIM4_Init) refers to usart2.o(i.TIM4_Set) for TIM4_Set
    usart2.o(i.TIM4_Set) refers to stm32f10x_tim.o(i.TIM_SetCounter) for TIM_SetCounter
    usart2.o(i.TIM4_Set) refers to stm32f10x_tim.o(i.TIM_Cmd) for TIM_Cmd
    usart2.o(i.UART_DMA_Config) refers to stm32f10x_rcc.o(i.RCC_AHBPeriphClockCmd) for RCC_AHBPeriphClockCmd
    usart2.o(i.UART_DMA_Config) refers to stm32f10x_dma.o(i.DMA_DeInit) for DMA_DeInit
    usart2.o(i.UART_DMA_Config) refers to stm32f10x_dma.o(i.DMA_Init) for DMA_Init
    usart2.o(i.UART_DMA_Enable) refers to stm32f10x_dma.o(i.DMA_Cmd) for DMA_Cmd
    usart2.o(i.UART_DMA_Enable) refers to stm32f10x_dma.o(i.DMA_SetCurrDataCounter) for DMA_SetCurrDataCounter
    usart2.o(i.UART_SEND_DATA) refers to rt_memcpy_v6.o(.text) for __aeabi_memcpy
    usart2.o(i.UART_SEND_DATA) refers to usart2.o(i.UART_DMA_Enable) for UART_DMA_Enable
    usart2.o(i.UART_SEND_DATA) refers to stm32f10x_dma.o(i.DMA_GetCurrDataCounter) for DMA_GetCurrDataCounter
    usart2.o(i.UART_SEND_DATA) refers to usart2.o(.bss) for USART2_TX_BUF
    usart2.o(i.USART2_IRQHandler) refers to _printf_percent.o(.ARM.Collect$$_printf_percent$$00000000) for _printf_percent
    usart2.o(i.USART2_IRQHandler) refers to _printf_s.o(.ARM.Collect$$_printf_percent$$00000014) for _printf_s
    usart2.o(i.USART2_IRQHandler) refers to _printf_str.o(.text) for _printf_str
    usart2.o(i.USART2_IRQHandler) refers to stm32f10x_usart.o(i.USART_GetITStatus) for USART_GetITStatus
    usart2.o(i.USART2_IRQHandler) refers to stm32f10x_usart.o(i.USART_ReceiveData) for USART_ReceiveData
    usart2.o(i.USART2_IRQHandler) refers to stm32f10x_tim.o(i.TIM_SetCounter) for TIM_SetCounter
    usart2.o(i.USART2_IRQHandler) refers to usart2.o(i.TIM4_Set) for TIM4_Set
    usart2.o(i.USART2_IRQHandler) refers to __2printf.o(.text) for __2printf
    usart2.o(i.USART2_IRQHandler) refers to usart2.o(.data) for USART2_RX_STA
    usart2.o(i.USART2_IRQHandler) refers to usart2.o(.bss) for USART2_RX_BUF
    usart2.o(i.USART2_IRQHandler) refers to usart2.o(.constdata) for __func__
    usart2.o(i.USART2_Init) refers to stm32f10x_rcc.o(i.RCC_APB2PeriphClockCmd) for RCC_APB2PeriphClockCmd
    usart2.o(i.USART2_Init) refers to stm32f10x_rcc.o(i.RCC_APB1PeriphClockCmd) for RCC_APB1PeriphClockCmd
    usart2.o(i.USART2_Init) refers to stm32f10x_usart.o(i.USART_DeInit) for USART_DeInit
    usart2.o(i.USART2_Init) refers to stm32f10x_gpio.o(i.GPIO_Init) for GPIO_Init
    usart2.o(i.USART2_Init) refers to stm32f10x_usart.o(i.USART_Init) for USART_Init
    usart2.o(i.USART2_Init) refers to stm32f10x_usart.o(i.USART_DMACmd) for USART_DMACmd
    usart2.o(i.USART2_Init) refers to usart2.o(i.UART_DMA_Config) for UART_DMA_Config
    usart2.o(i.USART2_Init) refers to stm32f10x_usart.o(i.USART_Cmd) for USART_Cmd
    usart2.o(i.USART2_Init) refers to stm32f10x_usart.o(i.USART_ITConfig) for USART_ITConfig
    usart2.o(i.USART2_Init) refers to misc.o(i.NVIC_Init) for NVIC_Init
    usart2.o(i.USART2_Init) refers to usart2.o(i.TIM4_Set) for TIM4_Set
    usart2.o(i.USART2_Init) refers to usart2.o(.bss) for USART2_TX_BUF
    usart2.o(i.USART2_Init) refers to usart2.o(.data) for USART2_RX_STA
    usart2.o(i.u2_printf) refers to c89vsprintf.o(.text) for __c89vsprintf
    usart2.o(i.u2_printf) refers to stm32f10x_dma.o(i.DMA_GetCurrDataCounter) for DMA_GetCurrDataCounter
    usart2.o(i.u2_printf) refers to strlen.o(.text) for strlen
    usart2.o(i.u2_printf) refers to usart2.o(i.UART_DMA_Enable) for UART_DMA_Enable
    usart2.o(i.u2_printf) refers to usart2.o(.bss) for USART2_TX_BUF
    keyacc.o(i.keyAcc_Init) refers to stm32f10x_rcc.o(i.RCC_APB2PeriphClockCmd) for RCC_APB2PeriphClockCmd
    keyacc.o(i.keyAcc_Init) refers to stm32f10x_gpio.o(i.GPIO_Init) for GPIO_Init
    keyacc.o(i.keyAcc_Scan) refers to stm32f10x_gpio.o(i.GPIO_ReadInputDataBit) for GPIO_ReadInputDataBit
    wwdg.o(i.WWDG_IRQHandler) refers to stm32f10x_wwdg.o(i.WWDG_SetCounter) for WWDG_SetCounter
    wwdg.o(i.WWDG_IRQHandler) refers to stm32f10x_wwdg.o(i.WWDG_ClearFlag) for WWDG_ClearFlag
    wwdg.o(i.WWDG_Init) refers to stm32f10x_rcc.o(i.RCC_APB1PeriphClockCmd) for RCC_APB1PeriphClockCmd
    wwdg.o(i.WWDG_Init) refers to stm32f10x_wwdg.o(i.WWDG_SetPrescaler) for WWDG_SetPrescaler
    wwdg.o(i.WWDG_Init) refers to stm32f10x_wwdg.o(i.WWDG_SetWindowValue) for WWDG_SetWindowValue
    wwdg.o(i.WWDG_Init) refers to stm32f10x_wwdg.o(i.WWDG_Enable) for WWDG_Enable
    wwdg.o(i.WWDG_Init) refers to stm32f10x_wwdg.o(i.WWDG_ClearFlag) for WWDG_ClearFlag
    wwdg.o(i.WWDG_Init) refers to wwdg.o(i.WWDG_NVIC_Init) for WWDG_NVIC_Init
    wwdg.o(i.WWDG_Init) refers to stm32f10x_wwdg.o(i.WWDG_EnableIT) for WWDG_EnableIT
    wwdg.o(i.WWDG_NVIC_Init) refers to misc.o(i.NVIC_Init) for NVIC_Init
    wwdg.o(i.WWDG_Set_Counter) refers to stm32f10x_wwdg.o(i.WWDG_Enable) for WWDG_Enable
    delay.o(i.SysTick_Handler) refers to os_core.o(i.OSIntEnter) for OSIntEnter
    delay.o(i.SysTick_Handler) refers to os_core.o(i.OSTimeTick) for OSTimeTick
    delay.o(i.SysTick_Handler) refers to os_core.o(i.OSIntExit) for OSIntExit
    delay.o(i.SysTick_Handler) refers to os_core.o(.data) for OSRunning
    delay.o(i.delay_init) refers to misc.o(i.SysTick_CLKSourceConfig) for SysTick_CLKSourceConfig
    delay.o(i.delay_init) refers to system_stm32f10x.o(.data) for SystemCoreClock
    delay.o(i.delay_init) refers to delay.o(.data) for fac_us
    delay.o(i.delay_ms) refers to delay.o(i.delay_ostimedly) for delay_ostimedly
    delay.o(i.delay_ms) refers to delay.o(i.delay_us) for delay_us
    delay.o(i.delay_ms) refers to os_core.o(.data) for OSRunning
    delay.o(i.delay_ms) refers to delay.o(.data) for fac_ms
    delay.o(i.delay_osschedlock) refers to os_core.o(i.OSSchedLock) for OSSchedLock
    delay.o(i.delay_osschedunlock) refers to os_core.o(i.OSSchedUnlock) for OSSchedUnlock
    delay.o(i.delay_ostimedly) refers to os_time.o(i.OSTimeDly) for OSTimeDly
    delay.o(i.delay_us) refers to delay.o(i.delay_osschedlock) for delay_osschedlock
    delay.o(i.delay_us) refers to delay.o(i.delay_osschedunlock) for delay_osschedunlock
    delay.o(i.delay_us) refers to delay.o(.data) for fac_us
    usart.o(i.UART_Init) refers (Special) to use_no_semi_2.o(.text) for __use_no_semihosting
    usart.o(i.UART_Init) refers to stm32f10x_rcc.o(i.RCC_APB2PeriphClockCmd) for RCC_APB2PeriphClockCmd
    usart.o(i.UART_Init) refers to stm32f10x_gpio.o(i.GPIO_Init) for GPIO_Init
    usart.o(i.UART_Init) refers to misc.o(i.NVIC_Init) for NVIC_Init
    usart.o(i.UART_Init) refers to stm32f10x_usart.o(i.USART_Init) for USART_Init
    usart.o(i.UART_Init) refers to stm32f10x_usart.o(i.USART_ITConfig) for USART_ITConfig
    usart.o(i.UART_Init) refers to stm32f10x_usart.o(i.USART_Cmd) for USART_Cmd
    usart.o(i.USART1_IRQHandler) refers (Special) to use_no_semi_2.o(.text) for __use_no_semihosting
    usart.o(i.USART1_IRQHandler) refers to os_core.o(i.OSIntEnter) for OSIntEnter
    usart.o(i.USART1_IRQHandler) refers to stm32f10x_usart.o(i.USART_GetITStatus) for USART_GetITStatus
    usart.o(i.USART1_IRQHandler) refers to stm32f10x_usart.o(i.USART_ReceiveData) for USART_ReceiveData
    usart.o(i.USART1_IRQHandler) refers to os_core.o(i.OSIntExit) for OSIntExit
    usart.o(i.USART1_IRQHandler) refers to usart.o(.data) for USART_RX_STA
    usart.o(i.USART1_IRQHandler) refers to usart.o(.bss) for USART_RX_BUF
    usart.o(i._sys_exit) refers (Special) to use_no_semi_2.o(.text) for __use_no_semihosting
    usart.o(i.fputc) refers (Special) to use_no_semi_2.o(.text) for __use_no_semihosting
    usart.o(.bss) refers (Special) to use_no_semi_2.o(.text) for __use_no_semihosting
    usart.o(.data) refers (Special) to use_no_semi_2.o(.text) for __use_no_semihosting
    crc8.o(i.crc8) refers to crc8.o(.bss) for crc_table
    crc8.o(i.crc8_creator) refers to crc8.o(i.crc8) for crc8
    crc8.o(i.crcInit) refers to rt_memclr.o(.text) for __aeabi_memclr
    crc8.o(i.crcInit) refers to crc8.o(i.crc8_populate_msb) for crc8_populate_msb
    crc8.o(i.crcInit) refers to crc8.o(i.crc8_populate_lsb) for crc8_populate_lsb
    crc8.o(i.crcInit) refers to crc8.o(.bss) for crc_table
    stm32f10x_can.o(i.CAN_DeInit) refers to stm32f10x_rcc.o(i.RCC_APB1PeriphResetCmd) for RCC_APB1PeriphResetCmd
    stm32f10x_can.o(i.CAN_GetITStatus) refers to stm32f10x_can.o(i.CheckITStatus) for CheckITStatus
    stm32f10x_gpio.o(i.GPIO_AFIODeInit) refers to stm32f10x_rcc.o(i.RCC_APB2PeriphResetCmd) for RCC_APB2PeriphResetCmd
    stm32f10x_gpio.o(i.GPIO_DeInit) refers to stm32f10x_rcc.o(i.RCC_APB2PeriphResetCmd) for RCC_APB2PeriphResetCmd
    stm32f10x_usart.o(i.USART_DeInit) refers to stm32f10x_rcc.o(i.RCC_APB2PeriphResetCmd) for RCC_APB2PeriphResetCmd
    stm32f10x_usart.o(i.USART_DeInit) refers to stm32f10x_rcc.o(i.RCC_APB1PeriphResetCmd) for RCC_APB1PeriphResetCmd
    stm32f10x_usart.o(i.USART_Init) refers to stm32f10x_rcc.o(i.RCC_GetClocksFreq) for RCC_GetClocksFreq
    stm32f10x_tim.o(i.TIM_DeInit) refers to stm32f10x_rcc.o(i.RCC_APB2PeriphResetCmd) for RCC_APB2PeriphResetCmd
    stm32f10x_tim.o(i.TIM_DeInit) refers to stm32f10x_rcc.o(i.RCC_APB1PeriphResetCmd) for RCC_APB1PeriphResetCmd
    stm32f10x_tim.o(i.TIM_ETRClockMode1Config) refers to stm32f10x_tim.o(i.TIM_ETRConfig) for TIM_ETRConfig
    stm32f10x_tim.o(i.TIM_ETRClockMode2Config) refers to stm32f10x_tim.o(i.TIM_ETRConfig) for TIM_ETRConfig
    stm32f10x_tim.o(i.TIM_ICInit) refers to stm32f10x_tim.o(i.TI1_Config) for TI1_Config
    stm32f10x_tim.o(i.TIM_ICInit) refers to stm32f10x_tim.o(i.TIM_SetIC1Prescaler) for TIM_SetIC1Prescaler
    stm32f10x_tim.o(i.TIM_ICInit) refers to stm32f10x_tim.o(i.TI2_Config) for TI2_Config
    stm32f10x_tim.o(i.TIM_ICInit) refers to stm32f10x_tim.o(i.TIM_SetIC2Prescaler) for TIM_SetIC2Prescaler
    stm32f10x_tim.o(i.TIM_ICInit) refers to stm32f10x_tim.o(i.TI3_Config) for TI3_Config
    stm32f10x_tim.o(i.TIM_ICInit) refers to stm32f10x_tim.o(i.TIM_SetIC3Prescaler) for TIM_SetIC3Prescaler
    stm32f10x_tim.o(i.TIM_ICInit) refers to stm32f10x_tim.o(i.TI4_Config) for TI4_Config
    stm32f10x_tim.o(i.TIM_ICInit) refers to stm32f10x_tim.o(i.TIM_SetIC4Prescaler) for TIM_SetIC4Prescaler
    stm32f10x_tim.o(i.TIM_ITRxExternalClockConfig) refers to stm32f10x_tim.o(i.TIM_SelectInputTrigger) for TIM_SelectInputTrigger
    stm32f10x_tim.o(i.TIM_PWMIConfig) refers to stm32f10x_tim.o(i.TI1_Config) for TI1_Config
    stm32f10x_tim.o(i.TIM_PWMIConfig) refers to stm32f10x_tim.o(i.TIM_SetIC1Prescaler) for TIM_SetIC1Prescaler
    stm32f10x_tim.o(i.TIM_PWMIConfig) refers to stm32f10x_tim.o(i.TI2_Config) for TI2_Config
    stm32f10x_tim.o(i.TIM_PWMIConfig) refers to stm32f10x_tim.o(i.TIM_SetIC2Prescaler) for TIM_SetIC2Prescaler
    stm32f10x_tim.o(i.TIM_TIxExternalClockConfig) refers to stm32f10x_tim.o(i.TI2_Config) for TI2_Config
    stm32f10x_tim.o(i.TIM_TIxExternalClockConfig) refers to stm32f10x_tim.o(i.TI1_Config) for TI1_Config
    stm32f10x_tim.o(i.TIM_TIxExternalClockConfig) refers to stm32f10x_tim.o(i.TIM_SelectInputTrigger) for TIM_SelectInputTrigger
    stm32f10x_rcc.o(i.RCC_GetClocksFreq) refers to stm32f10x_rcc.o(.data) for APBAHBPrescTable
    stm32f10x_rcc.o(i.RCC_WaitForHSEStartUp) refers to stm32f10x_rcc.o(i.RCC_GetFlagStatus) for RCC_GetFlagStatus
    stm32f10x_pwr.o(i.PWR_DeInit) refers to stm32f10x_rcc.o(i.RCC_APB1PeriphResetCmd) for RCC_APB1PeriphResetCmd
    stm32f10x_bkp.o(i.BKP_DeInit) refers to stm32f10x_rcc.o(i.RCC_BackupResetCmd) for RCC_BackupResetCmd
    stm32f10x_wwdg.o(i.WWDG_DeInit) refers to stm32f10x_rcc.o(i.RCC_APB1PeriphResetCmd) for RCC_APB1PeriphResetCmd
    main.o(i.chk_task) refers to _printf_percent.o(.ARM.Collect$$_printf_percent$$00000000) for _printf_percent
    main.o(i.chk_task) refers to _printf_d.o(.ARM.Collect$$_printf_percent$$00000009) for _printf_d
    main.o(i.chk_task) refers to _printf_dec.o(.text) for _printf_int_dec
    main.o(i.chk_task) refers to h1_alloc.o(.text) for malloc
    main.o(i.chk_task) refers to os_task.o(i.OSTaskStkChk) for OSTaskStkChk
    main.o(i.chk_task) refers to __2printf.o(.text) for __2printf
    main.o(i.chk_task) refers to can_task.o(i.getCanReadTaskStatus) for getCanReadTaskStatus
    main.o(i.chk_task) refers to can_task.o(i.getCanSendTaskStatus) for getCanSendTaskStatus
    main.o(i.chk_task) refers to os_time.o(i.OSTimeDlyHMSM) for OSTimeDlyHMSM
    main.o(i.chk_task) refers to main.o(.conststring) for .conststring
    main.o(i.main) refers to frameware.o(i.FRAMEWORK_INIT) for FRAMEWORK_INIT
    main.o(i.main) refers to os_core.o(i.OSInit) for OSInit
    main.o(i.main) refers to os_task.o(i.OSTaskCreateExt) for OSTaskCreateExt
    main.o(i.main) refers to os_core.o(i.OSStart) for OSStart
    main.o(i.main) refers to main.o(.bss) for START_TASK_STK
    main.o(i.main) refers to main.o(i.start_task) for start_task
    main.o(i.start_task) refers to os_time.o(i.OSTimeDlyHMSM) for OSTimeDlyHMSM
    main.o(i.start_task) refers to os_cpu_a.o(.text) for OS_CPU_SR_Save
    main.o(i.start_task) refers to __2printf.o(.text) for __2printf
    main.o(i.start_task) refers to crc8.o(i.crcInit) for crcInit
    main.o(i.start_task) refers to can_task.o(i.can_task_init) for can_task_init
    main.o(i.start_task) refers to uart_task.o(i.uart_task_Init) for uart_task_Init
    main.o(i.start_task) refers to schedule_task.o(i.schedule_task_init) for schedule_task_init
    main.o(i.start_task) refers to os_task.o(i.OSTaskSuspend) for OSTaskSuspend
    main.o(i.start_task) refers to main.o(.data) for baudrate
    schedule_task.o(i.displaystatus) refers to schedule_task.o(.data) for g_system_state
    schedule_task.o(i.schedule_indicate_task) refers to keyacc.o(i.keyAcc_Scan) for keyAcc_Scan
    schedule_task.o(i.schedule_indicate_task) refers to schedule_task.o(i.displaystatus) for displaystatus
    schedule_task.o(i.schedule_indicate_task) refers to control.o(i.control) for control
    schedule_task.o(i.schedule_indicate_task) refers to sleepwakeup.o(i.entry_sleep_mode) for entry_sleep_mode
    schedule_task.o(i.schedule_indicate_task) refers to os_time.o(i.OSTimeDlyHMSM) for OSTimeDlyHMSM
    schedule_task.o(i.schedule_indicate_task) refers to schedule_task.o(.data) for g_system_state
    schedule_task.o(i.schedule_task_init) refers to control.o(i.controlInit) for controlInit
    schedule_task.o(i.schedule_task_init) refers to os_task.o(i.OSTaskCreateExt) for OSTaskCreateExt
    schedule_task.o(i.schedule_task_init) refers to schedule_task.o(.bss) for SCHEDULE_INDICATE_TASK_STK
    schedule_task.o(i.schedule_task_init) refers to schedule_task.o(i.schedule_indicate_task) for schedule_indicate_task
    schedule_task.o(i.set_system_status) refers to schedule_task.o(.data) for g_system_state
    can_task.o(i._getcansendPacket) refers to os_mutex.o(i.OSMutexPend) for OSMutexPend
    can_task.o(i._getcansendPacket) refers to can_queue.o(i.get_send_queue) for get_send_queue
    can_task.o(i._getcansendPacket) refers to os_mutex.o(i.OSMutexPost) for OSMutexPost
    can_task.o(i._getcansendPacket) refers to can_task.o(.data) for g_mutex_cansend
    can_task.o(i._getcansendPacket) refers to can_task.o(.bss) for CAN_SEND_INFO
    can_task.o(i.addCanMsgAddr) refers to os_mutex.o(i.OSMutexPend) for OSMutexPend
    can_task.o(i.addCanMsgAddr) refers to can_queue.o(i.del_headdata_queue) for del_headdata_queue
    can_task.o(i.addCanMsgAddr) refers to os_mutex.o(i.OSMutexPost) for OSMutexPost
    can_task.o(i.addCanMsgAddr) refers to can_task.o(.data) for g_mutex_can
    can_task.o(i.addCanMsgAddr) refers to can_task.o(.bss) for CAN_QUEUE_INFO
    can_task.o(i.can_set_brandrate) refers to can.o(i.CAN_INIT) for CAN_INIT
    can_task.o(i.can_set_filter) refers to can.o(i.CAN_FILTERINIT) for CAN_FILTERINIT
    can_task.o(i.can_task_init) refers to can_queue.o(i.can_queue_init) for can_queue_init
    can_task.o(i.can_task_init) refers to can_queue.o(i.can_sendqueue_init) for can_sendqueue_init
    can_task.o(i.can_task_init) refers to can.o(i.CAN_INIT) for CAN_INIT
    can_task.o(i.can_task_init) refers to can.o(i.CAN_FILTERINIT) for CAN_FILTERINIT
    can_task.o(i.can_task_init) refers to os_sem.o(i.OSSemCreate) for OSSemCreate
    can_task.o(i.can_task_init) refers to os_mutex.o(i.OSMutexCreate) for OSMutexCreate
    can_task.o(i.can_task_init) refers to os_task.o(i.OSTaskCreateExt) for OSTaskCreateExt
    can_task.o(i.can_task_init) refers to __2printf.o(.text) for __2printf
    can_task.o(i.can_task_init) refers to can_task.o(.bss) for CAN_QUEUE_INFO
    can_task.o(i.can_task_init) refers to can_task.o(.data) for g_CAN_Prescaler
    can_task.o(i.can_task_init) refers to can_task.o(i.canreadTask) for canreadTask
    can_task.o(i.can_task_init) refers to can_task.o(i.cansendTask) for cansendTask
    can_task.o(i.canreadTask) refers to __2printf.o(.text) for __2printf
    can_task.o(i.canreadTask) refers to os_sem.o(i.OSSemPend) for OSSemPend
    can_task.o(i.canreadTask) refers to can_speed.o(i.can_resolve_speed) for can_resolve_speed
    can_task.o(i.canreadTask) refers to can_speed.o(i.set_canbus_status) for set_canbus_status
    can_task.o(i.canreadTask) refers to os_mutex.o(i.OSMutexPend) for OSMutexPend
    can_task.o(i.canreadTask) refers to can_queue.o(i.put_data_queue) for put_data_queue
    can_task.o(i.canreadTask) refers to os_mutex.o(i.OSMutexPost) for OSMutexPost
    can_task.o(i.canreadTask) refers to schedule_task.o(i.set_system_status) for set_system_status
    can_task.o(i.canreadTask) refers to can_task.o(.data) for g_isfinished
    can_task.o(i.canreadTask) refers to can_task.o(.bss) for g_RxMsg
    can_task.o(i.cansendTask) refers to __2printf.o(.text) for __2printf
    can_task.o(i.cansendTask) refers to can_task.o(i._getcansendPacket) for _getcansendPacket
    can_task.o(i.cansendTask) refers to convert.o(i.uartconvertcan) for uartconvertcan
    can_task.o(i.cansendTask) refers to can.o(i.CAN_TRANSMIT) for CAN_TRANSMIT
    can_task.o(i.cansendTask) refers to os_time.o(i.OSTimeDlyHMSM) for OSTimeDlyHMSM
    can_task.o(i.cansendTask) refers to os_sem.o(i.OSSemPend) for OSSemPend
    can_task.o(i.cansendTask) refers to can_task.o(.data) for g_istxfinished
    can_task.o(i.getCanMsg) refers to os_mutex.o(i.OSMutexPend) for OSMutexPend
    can_task.o(i.getCanMsg) refers to can_queue.o(i.get_data_queue) for get_data_queue
    can_task.o(i.getCanMsg) refers to os_mutex.o(i.OSMutexPost) for OSMutexPost
    can_task.o(i.getCanMsg) refers to can_task.o(.data) for g_mutex_can
    can_task.o(i.getCanMsg) refers to can_task.o(.bss) for CAN_QUEUE_INFO
    can_task.o(i.getCanMsgAddr) refers to os_mutex.o(i.OSMutexPend) for OSMutexPend
    can_task.o(i.getCanMsgAddr) refers to can_queue.o(i.get_headdata_queue) for get_headdata_queue
    can_task.o(i.getCanMsgAddr) refers to os_mutex.o(i.OSMutexPost) for OSMutexPost
    can_task.o(i.getCanMsgAddr) refers to can_task.o(.data) for g_mutex_can
    can_task.o(i.getCanMsgAddr) refers to can_task.o(.bss) for CAN_QUEUE_INFO
    can_task.o(i.getCanReadTaskStatus) refers to can_task.o(.data) for g_canread_status
    can_task.o(i.getCanSendTaskStatus) refers to can_task.o(.data) for g_cansend_status
    can_task.o(i.get_can_brandrate) refers to can_task.o(.data) for g_CAN_Prescaler
    can_task.o(i.pause_can_task) refers to can_task.o(i.pause_send_can_task) for pause_send_can_task
    can_task.o(i.pause_can_task) refers to can_task.o(i.pause_read_can_task) for pause_read_can_task
    can_task.o(i.pause_can_task) refers to can_task.o(i.start_canread_task) for start_canread_task
    can_task.o(i.pause_can_task) refers to can_task.o(i.start_cansend_task) for start_cansend_task
    can_task.o(i.pause_read_can_task) refers to _printf_percent.o(.ARM.Collect$$_printf_percent$$00000000) for _printf_percent
    can_task.o(i.pause_read_can_task) refers to _printf_d.o(.ARM.Collect$$_printf_percent$$00000009) for _printf_d
    can_task.o(i.pause_read_can_task) refers to _printf_dec.o(.text) for _printf_int_dec
    can_task.o(i.pause_read_can_task) refers to os_task.o(i.OSTaskSuspend) for OSTaskSuspend
    can_task.o(i.pause_read_can_task) refers to __2printf.o(.text) for __2printf
    can_task.o(i.pause_read_can_task) refers to can_task.o(.data) for g_canread_status
    can_task.o(i.pause_send_can_task) refers to _printf_percent.o(.ARM.Collect$$_printf_percent$$00000000) for _printf_percent
    can_task.o(i.pause_send_can_task) refers to _printf_d.o(.ARM.Collect$$_printf_percent$$00000009) for _printf_d
    can_task.o(i.pause_send_can_task) refers to _printf_dec.o(.text) for _printf_int_dec
    can_task.o(i.pause_send_can_task) refers to os_task.o(i.OSTaskSuspend) for OSTaskSuspend
    can_task.o(i.pause_send_can_task) refers to __2printf.o(.text) for __2printf
    can_task.o(i.pause_send_can_task) refers to can_task.o(.data) for g_cansend_status
    can_task.o(i.putcansendPacket) refers to __2printf.o(.text) for __2printf
    can_task.o(i.putcansendPacket) refers to os_mutex.o(i.OSMutexPend) for OSMutexPend
    can_task.o(i.putcansendPacket) refers to can_queue.o(i.put_send_queue) for put_send_queue
    can_task.o(i.putcansendPacket) refers to os_mutex.o(i.OSMutexPost) for OSMutexPost
    can_task.o(i.putcansendPacket) refers to can_task.o(i.startcansend) for startcansend
    can_task.o(i.putcansendPacket) refers to can_task.o(.data) for g_cansend_status
    can_task.o(i.putcansendPacket) refers to can_task.o(.bss) for CAN_SEND_INFO
    can_task.o(i.resolve_can_message) refers to rt_memcpy_w.o(.text) for __aeabi_memcpy4
    can_task.o(i.resolve_can_message) refers to os_sem.o(i.OSSemPost) for OSSemPost
    can_task.o(i.resolve_can_message) refers to can_task.o(.data) for g_isfinished
    can_task.o(i.resolve_can_message) refers to can_task.o(.bss) for g_RxMsg
    can_task.o(i.start_can_task) refers to can_task.o(i.start_cansend_task) for start_cansend_task
    can_task.o(i.start_can_task) refers to can_task.o(i.start_canread_task) for start_canread_task
    can_task.o(i.start_canread_task) refers to _printf_percent.o(.ARM.Collect$$_printf_percent$$00000000) for _printf_percent
    can_task.o(i.start_canread_task) refers to _printf_d.o(.ARM.Collect$$_printf_percent$$00000009) for _printf_d
    can_task.o(i.start_canread_task) refers to _printf_dec.o(.text) for _printf_int_dec
    can_task.o(i.start_canread_task) refers to os_task.o(i.OSTaskResume) for OSTaskResume
    can_task.o(i.start_canread_task) refers to __2printf.o(.text) for __2printf
    can_task.o(i.start_canread_task) refers to can_queue.o(i.clean_canqueue) for clean_canqueue
    can_task.o(i.start_canread_task) refers to can_task.o(.data) for g_canread_status
    can_task.o(i.start_canread_task) refers to can_task.o(.bss) for CAN_QUEUE_INFO
    can_task.o(i.start_cansend_task) refers to _printf_percent.o(.ARM.Collect$$_printf_percent$$00000000) for _printf_percent
    can_task.o(i.start_cansend_task) refers to _printf_d.o(.ARM.Collect$$_printf_percent$$00000009) for _printf_d
    can_task.o(i.start_cansend_task) refers to _printf_dec.o(.text) for _printf_int_dec
    can_task.o(i.start_cansend_task) refers to os_task.o(i.OSTaskResume) for OSTaskResume
    can_task.o(i.start_cansend_task) refers to __2printf.o(.text) for __2printf
    can_task.o(i.start_cansend_task) refers to can_queue.o(i.clean_cansendqueue) for clean_cansendqueue
    can_task.o(i.start_cansend_task) refers to can_task.o(.data) for g_cansend_status
    can_task.o(i.start_cansend_task) refers to can_task.o(.bss) for CAN_SEND_INFO
    can_task.o(i.startcansend) refers to __2printf.o(.text) for __2printf
    can_task.o(i.startcansend) refers to os_sem.o(i.OSSemPost) for OSSemPost
    can_task.o(i.startcansend) refers to can_task.o(.data) for g_istxfinished
    uart_task.o(i.getuartsendstatus) refers to uart_task.o(.data) for g_send_finished
    uart_task.o(i.pause_read_uart_task) refers to _printf_percent.o(.ARM.Collect$$_printf_percent$$00000000) for _printf_percent
    uart_task.o(i.pause_read_uart_task) refers to _printf_d.o(.ARM.Collect$$_printf_percent$$00000009) for _printf_d
    uart_task.o(i.pause_read_uart_task) refers to _printf_s.o(.ARM.Collect$$_printf_percent$$00000014) for _printf_s
    uart_task.o(i.pause_read_uart_task) refers to _printf_dec.o(.text) for _printf_int_dec
    uart_task.o(i.pause_read_uart_task) refers to _printf_str.o(.text) for _printf_str
    uart_task.o(i.pause_read_uart_task) refers to os_task.o(i.OSTaskSuspend) for OSTaskSuspend
    uart_task.o(i.pause_read_uart_task) refers to __2printf.o(.text) for __2printf
    uart_task.o(i.pause_read_uart_task) refers to uart_task.o(.data) for uart_read_status
    uart_task.o(i.pause_read_uart_task) refers to uart_task.o(.constdata) for __func__
    uart_task.o(i.pause_send_uart_task) refers to _printf_percent.o(.ARM.Collect$$_printf_percent$$00000000) for _printf_percent
    uart_task.o(i.pause_send_uart_task) refers to _printf_d.o(.ARM.Collect$$_printf_percent$$00000009) for _printf_d
    uart_task.o(i.pause_send_uart_task) refers to _printf_s.o(.ARM.Collect$$_printf_percent$$00000014) for _printf_s
    uart_task.o(i.pause_send_uart_task) refers to _printf_dec.o(.text) for _printf_int_dec
    uart_task.o(i.pause_send_uart_task) refers to _printf_str.o(.text) for _printf_str
    uart_task.o(i.pause_send_uart_task) refers to os_task.o(i.OSTaskSuspend) for OSTaskSuspend
    uart_task.o(i.pause_send_uart_task) refers to __2printf.o(.text) for __2printf
    uart_task.o(i.pause_send_uart_task) refers to uart_task.o(.data) for uart_send_status
    uart_task.o(i.pause_send_uart_task) refers to uart_task.o(.constdata) for __func__
    uart_task.o(i.pause_uart_task) refers to uart_task.o(i.pause_read_uart_task) for pause_read_uart_task
    uart_task.o(i.pause_uart_task) refers to uart_task.o(i.pause_send_uart_task) for pause_send_uart_task
    uart_task.o(i.pause_uart_task) refers to uart_task.o(i.start_uart_send_task) for start_uart_send_task
    uart_task.o(i.pause_uart_task) refers to uart_task.o(i.start_uart_read_task) for start_uart_read_task
    uart_task.o(i.start_uart_read_task) refers to _printf_percent.o(.ARM.Collect$$_printf_percent$$00000000) for _printf_percent
    uart_task.o(i.start_uart_read_task) refers to _printf_d.o(.ARM.Collect$$_printf_percent$$00000009) for _printf_d
    uart_task.o(i.start_uart_read_task) refers to _printf_s.o(.ARM.Collect$$_printf_percent$$00000014) for _printf_s
    uart_task.o(i.start_uart_read_task) refers to _printf_dec.o(.text) for _printf_int_dec
    uart_task.o(i.start_uart_read_task) refers to _printf_str.o(.text) for _printf_str
    uart_task.o(i.start_uart_read_task) refers to os_task.o(i.OSTaskResume) for OSTaskResume
    uart_task.o(i.start_uart_read_task) refers to __2printf.o(.text) for __2printf
    uart_task.o(i.start_uart_read_task) refers to ringbuf.o(i.cleanBuffer) for cleanBuffer
    uart_task.o(i.start_uart_read_task) refers to uart_task.o(.data) for uart_read_status
    uart_task.o(i.start_uart_read_task) refers to uart_task.o(.constdata) for __func__
    uart_task.o(i.start_uart_read_task) refers to uart_task.o(.bss) for ringInfo
    uart_task.o(i.start_uart_send_task) refers to _printf_percent.o(.ARM.Collect$$_printf_percent$$00000000) for _printf_percent
    uart_task.o(i.start_uart_send_task) refers to _printf_d.o(.ARM.Collect$$_printf_percent$$00000009) for _printf_d
    uart_task.o(i.start_uart_send_task) refers to _printf_s.o(.ARM.Collect$$_printf_percent$$00000014) for _printf_s
    uart_task.o(i.start_uart_send_task) refers to _printf_dec.o(.text) for _printf_int_dec
    uart_task.o(i.start_uart_send_task) refers to _printf_str.o(.text) for _printf_str
    uart_task.o(i.start_uart_send_task) refers to os_task.o(i.OSTaskResume) for OSTaskResume
    uart_task.o(i.start_uart_send_task) refers to __2printf.o(.text) for __2printf
    uart_task.o(i.start_uart_send_task) refers to uart_task.o(.data) for uart_send_status
    uart_task.o(i.start_uart_send_task) refers to uart_task.o(.constdata) for __func__
    uart_task.o(i.start_uart_task) refers to uart_task.o(i.start_uart_read_task) for start_uart_read_task
    uart_task.o(i.start_uart_task) refers to uart_task.o(i.start_uart_send_task) for start_uart_send_task
    uart_task.o(i.uart_parse_task) refers to _printf_percent.o(.ARM.Collect$$_printf_percent$$00000000) for _printf_percent
    uart_task.o(i.uart_parse_task) refers to _printf_x.o(.ARM.Collect$$_printf_percent$$0000000C) for _printf_x
    uart_task.o(i.uart_parse_task) refers to _printf_hex_int_ll_ptr.o(.text) for _printf_longlong_hex
    uart_task.o(i.uart_parse_task) refers to os_mutex.o(i.OSMutexPend) for OSMutexPend
    uart_task.o(i.uart_parse_task) refers to os_mutex.o(i.OSMutexPost) for OSMutexPost
    uart_task.o(i.uart_parse_task) refers to detect.o(i.detectvaildSync) for detectvaildSync
    uart_task.o(i.uart_parse_task) refers to detect.o(i.detectvaildMsgtype) for detectvaildMsgtype
    uart_task.o(i.uart_parse_task) refers to ringbuf.o(i.getdatafromBuffer) for getdatafromBuffer
    uart_task.o(i.uart_parse_task) refers to detect.o(i.detectcrc8) for detectcrc8
    uart_task.o(i.uart_parse_task) refers to can_task.o(i.putcansendPacket) for putcansendPacket
    uart_task.o(i.uart_parse_task) refers to __2printf.o(.text) for __2printf
    uart_task.o(i.uart_parse_task) refers to control.o(i.putcontrolCmd) for putcontrolCmd
    uart_task.o(i.uart_parse_task) refers to ringbuf.o(i.addparseBufferAddr) for addparseBufferAddr
    uart_task.o(i.uart_parse_task) refers to ringbuf.o(i.flush) for flush
    uart_task.o(i.uart_parse_task) refers to os_time.o(i.OSTimeDlyHMSM) for OSTimeDlyHMSM
    uart_task.o(i.uart_parse_task) refers to uart_task.o(.data) for uart_parse_status
    uart_task.o(i.uart_parse_task) refers to uart_task.o(.bss) for ringInfo
    uart_task.o(i.uart_read_task) refers to os_mutex.o(i.OSMutexPend) for OSMutexPend
    uart_task.o(i.uart_read_task) refers to os_mutex.o(i.OSMutexPost) for OSMutexPost
    uart_task.o(i.uart_read_task) refers to ringbuf.o(i.putdatatoBuffer) for putdatatoBuffer
    uart_task.o(i.uart_read_task) refers to ringbuf.o(i.flush) for flush
    uart_task.o(i.uart_read_task) refers to os_time.o(i.OSTimeDlyHMSM) for OSTimeDlyHMSM
    uart_task.o(i.uart_read_task) refers to uart_task.o(.data) for uart_read_status
    uart_task.o(i.uart_read_task) refers to usart2.o(.data) for USART2_RX_STA
    uart_task.o(i.uart_read_task) refers to uart_task.o(.bss) for ringInfo
    uart_task.o(i.uart_read_task) refers to usart2.o(.bss) for USART2_RX_BUF
    uart_task.o(i.uart_send_task) refers to __2printf.o(.text) for __2printf
    uart_task.o(i.uart_send_task) refers to os_time.o(i.OSTimeDlyHMSM) for OSTimeDlyHMSM
    uart_task.o(i.uart_send_task) refers to control.o(i.isresponse) for isresponse
    uart_task.o(i.uart_send_task) refers to encode.o(i.get_status_packet) for get_status_packet
    uart_task.o(i.uart_send_task) refers to usart2.o(i.UART_SEND_DATA) for UART_SEND_DATA
    uart_task.o(i.uart_send_task) refers to control.o(i.responsefinish) for responsefinish
    uart_task.o(i.uart_send_task) refers to encode.o(i.get_send_packet) for get_send_packet
    uart_task.o(i.uart_send_task) refers to can_speed.o(i.get_can_speed) for get_can_speed
    uart_task.o(i.uart_send_task) refers to can_speed.o(i.get_canbus_status) for get_canbus_status
    uart_task.o(i.uart_send_task) refers to can_speed.o(i.uart_send_speed) for uart_send_speed
    uart_task.o(i.uart_send_task) refers to uart_task.o(.data) for uart_send_status
    uart_task.o(i.uart_task_Init) refers to os_sem.o(i.OSSemCreate) for OSSemCreate
    uart_task.o(i.uart_task_Init) refers to os_mutex.o(i.OSMutexCreate) for OSMutexCreate
    uart_task.o(i.uart_task_Init) refers to os_task.o(i.OSTaskCreateExt) for OSTaskCreateExt
    uart_task.o(i.uart_task_Init) refers to ringbuf.o(i.ringbufferInit) for ringbufferInit
    uart_task.o(i.uart_task_Init) refers to uart_task.o(.data) for g_sem_send
    uart_task.o(i.uart_task_Init) refers to uart_task.o(.bss) for UART_SEND_TASK_STK
    uart_task.o(i.uart_task_Init) refers to uart_task.o(i.uart_send_task) for uart_send_task
    uart_task.o(i.uart_task_Init) refers to uart_task.o(i.uart_read_task) for uart_read_task
    uart_task.o(i.uart_task_Init) refers to uart_task.o(i.uart_parse_task) for uart_parse_task
    uart_task.o(i.uartsendstart) refers to os_sem.o(i.OSSemPost) for OSSemPost
    uart_task.o(i.uartsendstart) refers to uart_task.o(.data) for g_send_finished
    can_queue.o(i.can_queue_init) refers to _printf_percent.o(.ARM.Collect$$_printf_percent$$00000000) for _printf_percent
    can_queue.o(i.can_queue_init) refers to _printf_d.o(.ARM.Collect$$_printf_percent$$00000009) for _printf_d
    can_queue.o(i.can_queue_init) refers to _printf_s.o(.ARM.Collect$$_printf_percent$$00000014) for _printf_s
    can_queue.o(i.can_queue_init) refers to _printf_dec.o(.text) for _printf_int_dec
    can_queue.o(i.can_queue_init) refers to _printf_str.o(.text) for _printf_str
    can_queue.o(i.can_queue_init) refers to rt_memclr_w.o(.text) for __aeabi_memclr4
    can_queue.o(i.can_queue_init) refers to __2printf.o(.text) for __2printf
    can_queue.o(i.can_queue_init) refers to can_queue.o(.bss) for MsgBuf
    can_queue.o(i.can_queue_init) refers to can_queue.o(.constdata) for __func__
    can_queue.o(i.can_sendqueue_init) refers to _printf_percent.o(.ARM.Collect$$_printf_percent$$00000000) for _printf_percent
    can_queue.o(i.can_sendqueue_init) refers to _printf_d.o(.ARM.Collect$$_printf_percent$$00000009) for _printf_d
    can_queue.o(i.can_sendqueue_init) refers to _printf_s.o(.ARM.Collect$$_printf_percent$$00000014) for _printf_s
    can_queue.o(i.can_sendqueue_init) refers to _printf_dec.o(.text) for _printf_int_dec
    can_queue.o(i.can_sendqueue_init) refers to _printf_str.o(.text) for _printf_str
    can_queue.o(i.can_sendqueue_init) refers to rt_memclr_w.o(.text) for __aeabi_memclr4
    can_queue.o(i.can_sendqueue_init) refers to __2printf.o(.text) for __2printf
    can_queue.o(i.can_sendqueue_init) refers to can_queue.o(.bss) for uartMsg
    can_queue.o(i.can_sendqueue_init) refers to can_queue.o(.constdata) for __func__
    can_queue.o(i.get_data_queue) refers to rt_memcpy_w.o(.text) for __aeabi_memcpy4
    can_queue.o(i.put_data_queue) refers to __2printf.o(.text) for __2printf
    can_queue.o(i.put_data_queue) refers to rt_memcpy_w.o(.text) for __aeabi_memcpy4
    can_queue.o(i.put_send_queue) refers to __2printf.o(.text) for __2printf
    can_queue.o(i.put_send_queue) refers to rt_memcpy_v6.o(.text) for __aeabi_memcpy
    can_speed.o(i.can_obdii_resolve_speed) refers to can_speed.o(.data) for g_speed
    can_speed.o(i.can_resolve_speed) refers to can_speed.o(.data) for g_speed
    can_speed.o(i.can_send_speed) refers to can.o(i.can_tx) for can_tx
    can_speed.o(i.can_send_speed) refers to can_speed.o(.data) for buf
    can_speed.o(i.get_can_speed) refers to can_speed.o(.data) for g_speed
    can_speed.o(i.get_canbus_status) refers to can_speed.o(.data) for g_isvaild
    can_speed.o(i.obdii_requeset) refers to can.o(i.can_tx) for can_tx
    can_speed.o(i.obdii_requeset) refers to can_speed.o(.data) for request_buf
    can_speed.o(i.set_canbus_status) refers to can_speed.o(.data) for g_isvaild
    can_speed.o(i.uart_send_speed) refers to crc8.o(i.crc8_creator) for crc8_creator
    can_speed.o(i.uart_send_speed) refers to can_speed.o(.data) for buf
    encode.o(i.MsgCounter) refers to encode.o(.data) for msgcounter
    encode.o(i.addsys_errorcode) refers to encode.o(.data) for sys_status
    encode.o(i.get_send_packet) refers to can_task.o(i.getCanMsgAddr) for getCanMsgAddr
    encode.o(i.get_send_packet) refers to encode.o(i.MsgCounter) for MsgCounter
    encode.o(i.get_send_packet) refers to convert.o(i.canconvertuart) for canconvertuart
    encode.o(i.get_send_packet) refers to can_task.o(i.addCanMsgAddr) for addCanMsgAddr
    encode.o(i.get_status_packet) refers to can_speed.o(i.get_canbus_status) for get_canbus_status
    encode.o(i.get_status_packet) refers to can_task.o(i.getCanSendTaskStatus) for getCanSendTaskStatus
    encode.o(i.get_status_packet) refers to can_task.o(i.getCanReadTaskStatus) for getCanReadTaskStatus
    encode.o(i.get_status_packet) refers to can_task.o(i.get_can_brandrate) for get_can_brandrate
    encode.o(i.get_status_packet) refers to encode.o(i.MsgCounter) for MsgCounter
    encode.o(i.get_status_packet) refers to crc8.o(i.crc8_creator) for crc8_creator
    encode.o(i.get_status_packet) refers to encode.o(.data) for sys_status
    convert.o(i.canconvertuart) refers to crc8.o(i.crc8_creator) for crc8_creator
    ringbuf.o(i.getdatafromBuffer) refers to __2printf.o(.text) for __2printf
    ringbuf.o(i.getdatafromBuffer) refers to rt_memcpy_v6.o(.text) for __aeabi_memcpy
    ringbuf.o(i.putdatatoBuffer) refers to _printf_percent.o(.ARM.Collect$$_printf_percent$$00000000) for _printf_percent
    ringbuf.o(i.putdatatoBuffer) refers to _printf_d.o(.ARM.Collect$$_printf_percent$$00000009) for _printf_d
    ringbuf.o(i.putdatatoBuffer) refers to _printf_dec.o(.text) for _printf_int_dec
    ringbuf.o(i.putdatatoBuffer) refers to __2printf.o(.text) for __2printf
    ringbuf.o(i.putdatatoBuffer) refers to rt_memcpy_v6.o(.text) for __aeabi_memcpy
    ringbuf.o(i.ringbufferInit) refers to _printf_percent.o(.ARM.Collect$$_printf_percent$$00000000) for _printf_percent
    ringbuf.o(i.ringbufferInit) refers to _printf_d.o(.ARM.Collect$$_printf_percent$$00000009) for _printf_d
    ringbuf.o(i.ringbufferInit) refers to _printf_s.o(.ARM.Collect$$_printf_percent$$00000014) for _printf_s
    ringbuf.o(i.ringbufferInit) refers to _printf_dec.o(.text) for _printf_int_dec
    ringbuf.o(i.ringbufferInit) refers to _printf_str.o(.text) for _printf_str
    ringbuf.o(i.ringbufferInit) refers to rt_memclr.o(.text) for __aeabi_memclr
    ringbuf.o(i.ringbufferInit) refers to __2printf.o(.text) for __2printf
    ringbuf.o(i.ringbufferInit) refers to ringbuf.o(.constdata) for __func__
    detect.o(i.detectcrc8) refers to _printf_percent.o(.ARM.Collect$$_printf_percent$$00000000) for _printf_percent
    detect.o(i.detectcrc8) refers to _printf_d.o(.ARM.Collect$$_printf_percent$$00000009) for _printf_d
    detect.o(i.detectcrc8) refers to _printf_dec.o(.text) for _printf_int_dec
    detect.o(i.detectcrc8) refers to crc8.o(i.crc8_creator) for crc8_creator
    detect.o(i.detectcrc8) refers to __2printf.o(.text) for __2printf
    detect.o(i.detectvaildMsgtype) refers to _printf_percent.o(.ARM.Collect$$_printf_percent$$00000000) for _printf_percent
    detect.o(i.detectvaildMsgtype) refers to _printf_d.o(.ARM.Collect$$_printf_percent$$00000009) for _printf_d
    detect.o(i.detectvaildMsgtype) refers to _printf_dec.o(.text) for _printf_int_dec
    detect.o(i.detectvaildMsgtype) refers to __2printf.o(.text) for __2printf
    detect.o(i.detectvaildSync) refers to detect.o(i.addringaddr) for addringaddr
    cmd_queue.o(i.cmd_queue_init) refers to _printf_percent.o(.ARM.Collect$$_printf_percent$$00000000) for _printf_percent
    cmd_queue.o(i.cmd_queue_init) refers to _printf_d.o(.ARM.Collect$$_printf_percent$$00000009) for _printf_d
    cmd_queue.o(i.cmd_queue_init) refers to _printf_s.o(.ARM.Collect$$_printf_percent$$00000014) for _printf_s
    cmd_queue.o(i.cmd_queue_init) refers to _printf_dec.o(.text) for _printf_int_dec
    cmd_queue.o(i.cmd_queue_init) refers to _printf_str.o(.text) for _printf_str
    cmd_queue.o(i.cmd_queue_init) refers to rt_memclr_w.o(.text) for __aeabi_memclr4
    cmd_queue.o(i.cmd_queue_init) refers to __2printf.o(.text) for __2printf
    cmd_queue.o(i.cmd_queue_init) refers to cmd_queue.o(.bss) for cmd
    cmd_queue.o(i.cmd_queue_init) refers to cmd_queue.o(.constdata) for __func__
    cmd_queue.o(i.get_cmd_queue) refers to rt_memcpy_v6.o(.text) for __aeabi_memcpy
    cmd_queue.o(i.put_cmd_queue) refers to _printf_percent.o(.ARM.Collect$$_printf_percent$$00000000) for _printf_percent
    cmd_queue.o(i.put_cmd_queue) refers to _printf_s.o(.ARM.Collect$$_printf_percent$$00000014) for _printf_s
    cmd_queue.o(i.put_cmd_queue) refers to _printf_str.o(.text) for _printf_str
    cmd_queue.o(i.put_cmd_queue) refers to __2printf.o(.text) for __2printf
    cmd_queue.o(i.put_cmd_queue) refers to rt_memcpy_v6.o(.text) for __aeabi_memcpy
    cmd_queue.o(i.put_cmd_queue) refers to cmd_queue.o(.constdata) for __func__
    control.o(i.canidparse) refers to control.o(.bss) for idcmd
    control.o(i.cmdsetparse) refers to _printf_pad.o(.text) for _printf_pre_padding
    control.o(i.cmdsetparse) refers to _printf_percent.o(.ARM.Collect$$_printf_percent$$00000000) for _printf_percent
    control.o(i.cmdsetparse) refers to _printf_x.o(.ARM.Collect$$_printf_percent$$0000000C) for _printf_x
    control.o(i.cmdsetparse) refers to _printf_hex_int_ll_ptr.o(.text) for _printf_longlong_hex
    control.o(i.cmdsetparse) refers to __2printf.o(.text) for __2printf
    control.o(i.cmdsetparse) refers to control.o(.bss) for setcmd
    control.o(i.cmdsetprocess) refers to can_task.o(i.getCanSendTaskStatus) for getCanSendTaskStatus
    control.o(i.cmdsetprocess) refers to can_task.o(i.getCanReadTaskStatus) for getCanReadTaskStatus
    control.o(i.cmdsetprocess) refers to can_task.o(i.can_set_brandrate) for can_set_brandrate
    control.o(i.cmdsetprocess) refers to control.o(i.addcmdid2filter) for addcmdid2filter
    control.o(i.cmdsetprocess) refers to can_task.o(i.can_set_filter) for can_set_filter
    control.o(i.cmdsetprocess) refers to control.o(i.cmdid2filter) for cmdid2filter
    control.o(i.cmdsetprocess) refers to can_task.o(i.pause_send_can_task) for pause_send_can_task
    control.o(i.cmdsetprocess) refers to can_task.o(i.pause_read_can_task) for pause_read_can_task
    control.o(i.cmdsetprocess) refers to can_task.o(i.start_cansend_task) for start_cansend_task
    control.o(i.cmdsetprocess) refers to can_task.o(i.start_canread_task) for start_canread_task
    control.o(i.cmdsetprocess) refers to can_task.o(i.start_can_task) for start_can_task
    control.o(i.cmdsetprocess) refers to control.o(.data) for mfilter
    control.o(i.cmdsetprocess) refers to control.o(.bss) for idcmd
    control.o(i.cmdsetprocess) refers to can_task.o(.data) for default_filter
    control.o(i.control) refers to control.o(i.getcontrolCmd) for getcontrolCmd
    control.o(i.control) refers to control.o(i.cmdsetparse) for cmdsetparse
    control.o(i.control) refers to control.o(i.cmdsetprocess) for cmdsetprocess
    control.o(i.control) refers to control.o(i.canidparse) for canidparse
    control.o(i.control) refers to encode.o(i.addsys_errorcode) for addsys_errorcode
    control.o(i.control) refers to control.o(.bss) for parsecmd
    control.o(i.control) refers to control.o(.data) for g_isresponse
    control.o(i.controlInit) refers to rt_memclr_w.o(.text) for __aeabi_memclr4
    control.o(i.controlInit) refers to os_mutex.o(i.OSMutexCreate) for OSMutexCreate
    control.o(i.controlInit) refers to cmd_queue.o(i.cmd_queue_init) for cmd_queue_init
    control.o(i.controlInit) refers to control.o(.bss) for setcmd
    control.o(i.controlInit) refers to control.o(.data) for g_mutex_control
    control.o(i.getcontrolCmd) refers to os_mutex.o(i.OSMutexPend) for OSMutexPend
    control.o(i.getcontrolCmd) refers to cmd_queue.o(i.get_cmd_queue) for get_cmd_queue
    control.o(i.getcontrolCmd) refers to os_mutex.o(i.OSMutexPost) for OSMutexPost
    control.o(i.getcontrolCmd) refers to control.o(.data) for g_mutex_control
    control.o(i.getcontrolCmd) refers to control.o(.bss) for CMDINFO
    control.o(i.isresponse) refers to control.o(.data) for g_isresponse
    control.o(i.putcontrolCmd) refers to os_mutex.o(i.OSMutexPend) for OSMutexPend
    control.o(i.putcontrolCmd) refers to cmd_queue.o(i.put_cmd_queue) for put_cmd_queue
    control.o(i.putcontrolCmd) refers to os_mutex.o(i.OSMutexPost) for OSMutexPost
    control.o(i.putcontrolCmd) refers to control.o(.data) for g_mutex_control
    control.o(i.putcontrolCmd) refers to control.o(.bss) for CMDINFO
    control.o(i.responsefinish) refers to control.o(.data) for g_isresponse
    sleepwakeup.o(i.entry_sleep_mode) refers to _printf_percent.o(.ARM.Collect$$_printf_percent$$00000000) for _printf_percent
    sleepwakeup.o(i.entry_sleep_mode) refers to _printf_s.o(.ARM.Collect$$_printf_percent$$00000014) for _printf_s
    sleepwakeup.o(i.entry_sleep_mode) refers to _printf_str.o(.text) for _printf_str
    sleepwakeup.o(i.entry_sleep_mode) refers to __2printf.o(.text) for __2printf
    sleepwakeup.o(i.entry_sleep_mode) refers to sleepwakeup.o(i.sys_mode_entry) for sys_mode_entry
    sleepwakeup.o(i.entry_sleep_mode) refers to sleepwakeup.o(i.sys_stop_mode) for sys_stop_mode
    sleepwakeup.o(i.entry_sleep_mode) refers to frameware.o(i.FRAMEWORK_INIT) for FRAMEWORK_INIT
    sleepwakeup.o(i.entry_sleep_mode) refers to uart_task.o(i.start_uart_task) for start_uart_task
    sleepwakeup.o(i.entry_sleep_mode) refers to can_task.o(i.start_can_task) for start_can_task
    sleepwakeup.o(i.entry_sleep_mode) refers to sleepwakeup.o(.constdata) for __func__
    sleepwakeup.o(i.switchoffclk) refers to stm32f10x_rcc.o(i.RCC_AHBPeriphClockCmd) for RCC_AHBPeriphClockCmd
    sleepwakeup.o(i.switchoffclk) refers to stm32f10x_rcc.o(i.RCC_APB2PeriphClockCmd) for RCC_APB2PeriphClockCmd
    sleepwakeup.o(i.switchoffclk) refers to stm32f10x_rcc.o(i.RCC_APB1PeriphClockCmd) for RCC_APB1PeriphClockCmd
    sleepwakeup.o(i.sys_mode_entry) refers to can_task.o(i.pause_can_task) for pause_can_task
    sleepwakeup.o(i.sys_mode_entry) refers to uart_task.o(i.pause_uart_task) for pause_uart_task
    sleepwakeup.o(i.sys_mode_entry) refers to sleepwakeup.o(i.switchoffclk) for switchoffclk
    sleepwakeup.o(i.sys_mode_entry) refers to os_cpu_a.o(.text) for OS_CPU_SR_Save
    sleepwakeup.o(i.sys_mode_entry) refers to frameware.o(i.exti_Init) for exti_Init
    sleepwakeup.o(i.sys_sleep_mode) refers to misc.o(i.NVIC_SystemLPConfig) for NVIC_SystemLPConfig
    sleepwakeup.o(i.sys_stop_mode) refers to stm32f10x_rcc.o(i.RCC_APB1PeriphClockCmd) for RCC_APB1PeriphClockCmd
    sleepwakeup.o(i.sys_stop_mode) refers to stm32f10x_pwr.o(i.PWR_EnterSTOPMode) for PWR_EnterSTOPMode
    frameware.o(i.EXTI15_10_IRQHandler) refers to _printf_percent.o(.ARM.Collect$$_printf_percent$$00000000) for _printf_percent
    frameware.o(i.EXTI15_10_IRQHandler) refers to _printf_s.o(.ARM.Collect$$_printf_percent$$00000014) for _printf_s
    frameware.o(i.EXTI15_10_IRQHandler) refers to _printf_str.o(.text) for _printf_str
    frameware.o(i.EXTI15_10_IRQHandler) refers to stm32f10x_exti.o(i.EXTI_GetITStatus) for EXTI_GetITStatus
    frameware.o(i.EXTI15_10_IRQHandler) refers to frameware.o(i.exti_release) for exti_release
    frameware.o(i.EXTI15_10_IRQHandler) refers to stm32f10x_exti.o(i.EXTI_ClearITPendingBit) for EXTI_ClearITPendingBit
    frameware.o(i.EXTI15_10_IRQHandler) refers to __2printf.o(.text) for __2printf
    frameware.o(i.EXTI15_10_IRQHandler) refers to frameware.o(.constdata) for __func__
    frameware.o(i.FRAMEWORK_INIT) refers to system_stm32f10x.o(i.SystemInit) for SystemInit
    frameware.o(i.FRAMEWORK_INIT) refers to misc.o(i.NVIC_PriorityGroupConfig) for NVIC_PriorityGroupConfig
    frameware.o(i.FRAMEWORK_INIT) refers to delay.o(i.delay_init) for delay_init
    frameware.o(i.FRAMEWORK_INIT) refers to frameware.o(i.setGPIOModeToAllPins) for setGPIOModeToAllPins
    frameware.o(i.FRAMEWORK_INIT) refers to frameware.o(i.sys_switch) for sys_switch
    frameware.o(i.FRAMEWORK_INIT) refers to led.o(i.LED_Init) for LED_Init
    frameware.o(i.FRAMEWORK_INIT) refers to usart.o(i.UART_Init) for UART_Init
    frameware.o(i.FRAMEWORK_INIT) refers to can.o(i.CAN_GPIO_Config) for CAN_GPIO_Config
    frameware.o(i.FRAMEWORK_INIT) refers to can.o(i.CAN_NVIC_Configuration) for CAN_NVIC_Configuration
    frameware.o(i.FRAMEWORK_INIT) refers to usart2.o(i.USART2_Init) for USART2_Init
    frameware.o(i.FRAMEWORK_INIT) refers to usart2.o(i.TIM4_Init) for TIM4_Init
    frameware.o(i.FRAMEWORK_INIT) refers to usart2.o(i.TIM4_Set) for TIM4_Set
    frameware.o(i.FRAMEWORK_INIT) refers to keyacc.o(i.keyAcc_Init) for keyAcc_Init
    frameware.o(i.FRAMEWORK_RELEASE) refers to can.o(i.CAN_NVIC_Configuration) for CAN_NVIC_Configuration
    frameware.o(i.FRAMEWORK_RELEASE) refers to stm32f10x_tim.o(i.TIM_ITConfig) for TIM_ITConfig
    frameware.o(i.FRAMEWORK_RELEASE) refers to usart2.o(i.TIM4_Set) for TIM4_Set
    frameware.o(i.FRAMEWORK_RELEASE) refers to frameware.o(i.setGPIOModeToAin) for setGPIOModeToAin
    frameware.o(i.SYSCLKConfig_STOP) refers to stm32f10x_rcc.o(i.RCC_HSEConfig) for RCC_HSEConfig
    frameware.o(i.SYSCLKConfig_STOP) refers to stm32f10x_rcc.o(i.RCC_WaitForHSEStartUp) for RCC_WaitForHSEStartUp
    frameware.o(i.SYSCLKConfig_STOP) refers to stm32f10x_rcc.o(i.RCC_PLLCmd) for RCC_PLLCmd
    frameware.o(i.SYSCLKConfig_STOP) refers to stm32f10x_rcc.o(i.RCC_GetFlagStatus) for RCC_GetFlagStatus
    frameware.o(i.SYSCLKConfig_STOP) refers to stm32f10x_rcc.o(i.RCC_SYSCLKConfig) for RCC_SYSCLKConfig
    frameware.o(i.SYSCLKConfig_STOP) refers to stm32f10x_rcc.o(i.RCC_GetSYSCLKSource) for RCC_GetSYSCLKSource
    frameware.o(i.SYSCLKConfig_STOP) refers to frameware.o(.data) for HSEStartUpStatus
    frameware.o(i.exti_Init) refers to stm32f10x_rcc.o(i.RCC_APB2PeriphClockCmd) for RCC_APB2PeriphClockCmd
    frameware.o(i.exti_Init) refers to stm32f10x_gpio.o(i.GPIO_PinRemapConfig) for GPIO_PinRemapConfig
    frameware.o(i.exti_Init) refers to stm32f10x_exti.o(i.EXTI_ClearITPendingBit) for EXTI_ClearITPendingBit
    frameware.o(i.exti_Init) refers to stm32f10x_gpio.o(i.GPIO_Init) for GPIO_Init
    frameware.o(i.exti_Init) refers to stm32f10x_gpio.o(i.GPIO_EXTILineConfig) for GPIO_EXTILineConfig
    frameware.o(i.exti_Init) refers to stm32f10x_exti.o(i.EXTI_Init) for EXTI_Init
    frameware.o(i.exti_Init) refers to misc.o(i.NVIC_Init) for NVIC_Init
    frameware.o(i.exti_release) refers to stm32f10x_exti.o(i.EXTI_Init) for EXTI_Init
    frameware.o(i.exti_release) refers to misc.o(i.NVIC_Init) for NVIC_Init
    frameware.o(i.setGPIOModeToAin) refers to stm32f10x_gpio.o(i.GPIO_Init) for GPIO_Init
    frameware.o(i.setGPIOModeToAllPins) refers to stm32f10x_gpio.o(i.GPIO_Init) for GPIO_Init
    frameware.o(i.sys_switch) refers to stm32f10x_rcc.o(i.RCC_APB2PeriphClockCmd) for RCC_APB2PeriphClockCmd
    frameware.o(i.sys_switch) refers to stm32f10x_gpio.o(i.GPIO_Init) for GPIO_Init
    use_no_semi_2.o(.text) refers (Special) to use_no_semi.o(.text) for __use_no_semihosting_swi
    malloc.o(.text) refers (Special) to hguard.o(.text) for __heap$guard
    malloc.o(.text) refers (Special) to init_alloc.o(.text) for _init_alloc
    malloc.o(.text) refers to rt_heap_descriptor_intlibspace.o(.text) for __rt_heap_descriptor
    malloc.o(.text) refers to heapstubs.o(.text) for __Heap_Alloc
    h1_alloc.o(.text) refers (Special) to h1_init.o(.text) for __Heap_Initialize
    h1_alloc.o(.text) refers to rt_heap_descriptor_intlibspace.o(.text) for __rt_heap_descriptor
    h1_alloc.o(.text) refers to init_alloc.o(.text) for __Heap_Full
    h1_alloc_mt.o(.text) refers (Special) to h1_init.o(.text) for __Heap_Initialize
    h1_alloc_mt.o(.text) refers to init_alloc.o(.text) for __Heap_Full
    h1_alloc_mt.o(.text) refers to rt_heap_descriptor_intlibspace.o(.text) for __rt_heap_descriptor
    heap2.o(i._FDIterate) refers to heap2.o(.conststring) for .conststring
    heap2.o(i.___Heap_ProvideMemory$realtime) refers to fdtree.o(i._FDTree_Delete) for _FDTree_Delete
    heap2.o(i.___Heap_ProvideMemory$realtime) refers to fdtree.o(i._FDTree_Insert) for _FDTree_Insert
    heap2.o(i.___Heap_Stats$realtime) refers to heap2.o(i._Heap2_StatsIterate) for _Heap2_StatsIterate
    heap2.o(i.___Heap_Valid$realtime) refers to heap2.o(i._FDIterate) for _FDIterate
    heap2.o(i.___Heap_Valid$realtime) refers to heap2.o(.conststring) for .conststring
    heap2.o(i._free$realtime) refers to rt_heap_descriptor_intlibspace.o(.text) for __rt_heap_descriptor
    heap2.o(i._free$realtime) refers to fdtree.o(i._FDTree_Delete) for _FDTree_Delete
    heap2.o(i._free$realtime) refers to fdtree.o(i._FDTree_Insert) for _FDTree_Insert
    heap2.o(i._malloc$realtime) refers to rt_heap_descriptor_intlibspace.o(.text) for __rt_heap_descriptor
    heap2.o(i._malloc$realtime) refers to fdtree.o(i._FDTree_FindFirst) for _FDTree_FindFirst
    heap2.o(i._malloc$realtime) refers to init_alloc.o(.text) for __Heap_Full
    heap2.o(i._malloc$realtime) refers to fdtree.o(i._FDTree_RemoveNode) for _FDTree_RemoveNode
    heap2.o(i._malloc$realtime) refers to fdtree.o(i._FDTree_Insert) for _FDTree_Insert
    heap2.o(i._posix_memalign$realtime) refers to rt_heap_descriptor_intlibspace.o(.text) for __rt_heap_descriptor
    heap2.o(i._posix_memalign$realtime) refers to fdtree.o(i._FDTree_FindFirst) for _FDTree_FindFirst
    heap2.o(i._posix_memalign$realtime) refers to init_alloc.o(.text) for __Heap_Full
    heap2.o(i._posix_memalign$realtime) refers to fdtree.o(i._FDTree_RemoveNode) for _FDTree_RemoveNode
    heap2.o(i._posix_memalign$realtime) refers to fdtree.o(i._FDTree_Insert) for _FDTree_Insert
    heap2.o(i._realloc$realtime) refers to rt_heap_descriptor_intlibspace.o(.text) for __rt_heap_descriptor
    heap2.o(i._realloc$realtime) refers to fdtree.o(i._FDTree_Insert) for _FDTree_Insert
    heap2.o(i._realloc$realtime) refers to h1_free.o(.text) for free
    heap2.o(i._realloc$realtime) refers to h1_alloc.o(.text) for malloc
    heap2.o(i._realloc$realtime) refers to fdtree.o(i._FDTree_Delete) for _FDTree_Delete
    heap2.o(i._realloc$realtime) refers to rt_memcpy_w.o(.text) for __aeabi_memcpy4
    heap2mt.o(i._FDIterate) refers to heap2mt.o(.conststring) for .conststring
    heap2mt.o(i.___Heap_Initialize$realtime$concurrent) refers to mutex_dummy.o(.text) for _mutex_initialize
    heap2mt.o(i.___Heap_ProvideMemory$realtime$concurrent) refers to fdtree.o(i._FDTree_Delete) for _FDTree_Delete
    heap2mt.o(i.___Heap_ProvideMemory$realtime$concurrent) refers to fdtree.o(i._FDTree_Insert) for _FDTree_Insert
    heap2mt.o(i.___Heap_Stats$realtime$concurrent) refers to heap2mt.o(i._Heap2_StatsIterate) for _Heap2_StatsIterate
    heap2mt.o(i.___Heap_Valid$realtime$concurrent) refers to heap2mt.o(i._FDIterate) for _FDIterate
    heap2mt.o(i.___Heap_Valid$realtime$concurrent) refers to heap2mt.o(.conststring) for .conststring
    heap2mt.o(i._free$realtime$concurrent) refers to rt_heap_descriptor_intlibspace.o(.text) for __rt_heap_descriptor
    heap2mt.o(i._free$realtime$concurrent) refers to fdtree.o(i._FDTree_Delete) for _FDTree_Delete
    heap2mt.o(i._free$realtime$concurrent) refers to fdtree.o(i._FDTree_Insert) for _FDTree_Insert
    heap2mt.o(i._malloc$realtime$concurrent) refers to rt_heap_descriptor_intlibspace.o(.text) for __rt_heap_descriptor
    heap2mt.o(i._malloc$realtime$concurrent) refers to fdtree.o(i._FDTree_FindFirst) for _FDTree_FindFirst
    heap2mt.o(i._malloc$realtime$concurrent) refers to init_alloc.o(.text) for __Heap_Full
    heap2mt.o(i._malloc$realtime$concurrent) refers to fdtree.o(i._FDTree_RemoveNode) for _FDTree_RemoveNode
    heap2mt.o(i._malloc$realtime$concurrent) refers to fdtree.o(i._FDTree_Insert) for _FDTree_Insert
    heap2mt.o(i._posix_memalign$realtime$concurrent) refers to rt_heap_descriptor_intlibspace.o(.text) for __rt_heap_descriptor
    heap2mt.o(i._posix_memalign$realtime$concurrent) refers to fdtree.o(i._FDTree_FindFirst) for _FDTree_FindFirst
    heap2mt.o(i._posix_memalign$realtime$concurrent) refers to init_alloc.o(.text) for __Heap_Full
    heap2mt.o(i._posix_memalign$realtime$concurrent) refers to fdtree.o(i._FDTree_RemoveNode) for _FDTree_RemoveNode
    heap2mt.o(i._posix_memalign$realtime$concurrent) refers to fdtree.o(i._FDTree_Insert) for _FDTree_Insert
    heap2mt.o(i._realloc$realtime$concurrent) refers to rt_heap_descriptor_intlibspace.o(.text) for __rt_heap_descriptor
    heap2mt.o(i._realloc$realtime$concurrent) refers to fdtree.o(i._FDTree_Insert) for _FDTree_Insert
    heap2mt.o(i._realloc$realtime$concurrent) refers to h1_free.o(.text) for free
    heap2mt.o(i._realloc$realtime$concurrent) refers to h1_alloc.o(.text) for malloc
    heap2mt.o(i._realloc$realtime$concurrent) refers to fdtree.o(i._FDTree_Delete) for _FDTree_Delete
    heap2mt.o(i._realloc$realtime$concurrent) refers to rt_memcpy_w.o(.text) for __aeabi_memcpy4
    c89vsprintf.o(.text) refers (Special) to _printf_a.o(.ARM.Collect$$_printf_percent$$00000006) for _printf_a
    c89vsprintf.o(.text) refers (Special) to _printf_c.o(.ARM.Collect$$_printf_percent$$00000013) for _printf_c
    c89vsprintf.o(.text) refers (Special) to _printf_charcount.o(.text) for _printf_charcount
    c89vsprintf.o(.text) refers (Special) to _printf_d.o(.ARM.Collect$$_printf_percent$$00000009) for _printf_d
    c89vsprintf.o(.text) refers (Special) to _printf_e.o(.ARM.Collect$$_printf_percent$$00000004) for _printf_e
    c89vsprintf.o(.text) refers (Special) to _printf_f.o(.ARM.Collect$$_printf_percent$$00000003) for _printf_f
    c89vsprintf.o(.text) refers (Special) to printf1.o(x$fpl$printf1) for _printf_fp_dec
    c89vsprintf.o(.text) refers (Special) to _printf_g.o(.ARM.Collect$$_printf_percent$$00000005) for _printf_g
    c89vsprintf.o(.text) refers (Special) to _printf_i.o(.ARM.Collect$$_printf_percent$$00000008) for _printf_i
    c89vsprintf.o(.text) refers (Special) to _printf_dec.o(.text) for _printf_int_dec
    c89vsprintf.o(.text) refers (Special) to _printf_l.o(.ARM.Collect$$_printf_percent$$00000012) for _printf_l
    c89vsprintf.o(.text) refers (Special) to _printf_lc.o(.ARM.Collect$$_printf_percent$$00000015) for _printf_lc
    c89vsprintf.o(.text) refers (Special) to _printf_ll.o(.ARM.Collect$$_printf_percent$$00000007) for _printf_ll
    c89vsprintf.o(.text) refers (Special) to _printf_lld.o(.ARM.Collect$$_printf_percent$$0000000E) for _printf_lld
    c89vsprintf.o(.text) refers (Special) to _printf_lli.o(.ARM.Collect$$_printf_percent$$0000000D) for _printf_lli
    c89vsprintf.o(.text) refers (Special) to _printf_llo.o(.ARM.Collect$$_printf_percent$$00000010) for _printf_llo
    c89vsprintf.o(.text) refers (Special) to _printf_llu.o(.ARM.Collect$$_printf_percent$$0000000F) for _printf_llu
    c89vsprintf.o(.text) refers (Special) to _printf_llx.o(.ARM.Collect$$_printf_percent$$00000011) for _printf_llx
    c89vsprintf.o(.text) refers (Special) to _printf_longlong_dec.o(.text) for _printf_longlong_dec
    c89vsprintf.o(.text) refers (Special) to _printf_hex_int_ll_ptr.o(.text) for _printf_longlong_hex
    c89vsprintf.o(.text) refers (Special) to _printf_oct_int_ll.o(.text) for _printf_longlong_oct
    c89vsprintf.o(.text) refers (Special) to _printf_ls.o(.ARM.Collect$$_printf_percent$$00000016) for _printf_ls
    c89vsprintf.o(.text) refers (Special) to _printf_n.o(.ARM.Collect$$_printf_percent$$00000001) for _printf_n
    c89vsprintf.o(.text) refers (Special) to _printf_o.o(.ARM.Collect$$_printf_percent$$0000000B) for _printf_o
    c89vsprintf.o(.text) refers (Special) to _printf_p.o(.ARM.Collect$$_printf_percent$$00000002) for _printf_p
    c89vsprintf.o(.text) refers (Special) to _printf_percent.o(.ARM.Collect$$_printf_percent$$00000000) for _printf_percent
    c89vsprintf.o(.text) refers (Special) to _printf_pad.o(.text) for _printf_post_padding
    c89vsprintf.o(.text) refers (Special) to _printf_s.o(.ARM.Collect$$_printf_percent$$00000014) for _printf_s
    c89vsprintf.o(.text) refers (Special) to _printf_str.o(.text) for _printf_str
    c89vsprintf.o(.text) refers (Special) to _printf_truncate.o(.text) for _printf_truncate_signed
    c89vsprintf.o(.text) refers (Special) to _printf_u.o(.ARM.Collect$$_printf_percent$$0000000A) for _printf_u
    c89vsprintf.o(.text) refers (Special) to _printf_wctomb.o(.text) for _printf_wctomb
    c89vsprintf.o(.text) refers (Special) to _printf_x.o(.ARM.Collect$$_printf_percent$$0000000C) for _printf_x
    c89vsprintf.o(.text) refers to _printf_char_common.o(.text) for _printf_char_common
    c89vsprintf.o(.text) refers to _sputc.o(.text) for _sputc
    __2printf.o(.text) refers to _printf_char_file.o(.text) for _printf_char_file
    __2printf.o(.text) refers to usart.o(.data) for __stdout
    noretval__2printf.o(.text) refers to _printf_char_file.o(.text) for _printf_char_file
    noretval__2printf.o(.text) refers to usart.o(.data) for __stdout
    __printf.o(.text) refers to _printf_percent.o(.ARM.Collect$$_printf_percent$$00000000) for _printf_percent
    _printf_str.o(.text) refers (Special) to _printf_char.o(.text) for _printf_cs_common
    _printf_str.o(.text) refers (Weak) to _printf_pad.o(.text) for _printf_pre_padding
    _printf_str.o(.text) refers (Weak) to _printf_pad.o(.text) for _printf_post_padding
    _printf_dec.o(.text) refers (Weak) to _printf_truncate.o(.text) for _printf_truncate_signed
    _printf_dec.o(.text) refers (Weak) to _printf_truncate.o(.text) for _printf_truncate_unsigned
    _printf_dec.o(.text) refers to _printf_intcommon.o(.text) for _printf_int_common
    _printf_hex_ll.o(.text) refers to _printf_intcommon.o(.text) for _printf_int_common
    _printf_hex_ll.o(.text) refers to _printf_hex_ll.o(.constdata) for .constdata
    _printf_hex_int.o(.text) refers (Weak) to _printf_truncate.o(.text) for _printf_truncate_unsigned
    _printf_hex_int.o(.text) refers to _printf_intcommon.o(.text) for _printf_int_common
    _printf_hex_int.o(.text) refers to _printf_hex_int.o(.constdata) for .constdata
    _printf_hex_int_ll.o(.text) refers to _printf_intcommon.o(.text) for _printf_int_common
    _printf_hex_int_ll.o(.text) refers (Weak) to _printf_truncate.o(.text) for _printf_truncate_unsigned
    _printf_hex_int_ll.o(.text) refers to _printf_hex_int_ll.o(.constdata) for .constdata
    _printf_hex_ptr.o(.text) refers to _printf_intcommon.o(.text) for _printf_int_common
    _printf_hex_ptr.o(.text) refers to _printf_hex_ptr.o(.constdata) for .constdata
    _printf_hex_int_ptr.o(.text) refers to _printf_intcommon.o(.text) for _printf_int_common
    _printf_hex_int_ptr.o(.text) refers (Weak) to _printf_truncate.o(.text) for _printf_truncate_unsigned
    _printf_hex_int_ptr.o(.text) refers to _printf_hex_int_ptr.o(.constdata) for .constdata
    _printf_hex_ll_ptr.o(.text) refers to _printf_intcommon.o(.text) for _printf_int_common
    _printf_hex_ll_ptr.o(.text) refers to _printf_hex_ll_ptr.o(.constdata) for .constdata
    _printf_hex_int_ll_ptr.o(.text) refers to _printf_intcommon.o(.text) for _printf_int_common
    _printf_hex_int_ll_ptr.o(.text) refers (Weak) to _printf_truncate.o(.text) for _printf_truncate_unsigned
    _printf_hex_int_ll_ptr.o(.text) refers to _printf_hex_int_ll_ptr.o(.constdata) for .constdata
    __printf_flags.o(.text) refers to _printf_percent.o(.ARM.Collect$$_printf_percent$$00000000) for _printf_percent
    __printf_flags.o(.text) refers to __printf_flags.o(.constdata) for .constdata
    __printf_ss.o(.text) refers to _printf_percent.o(.ARM.Collect$$_printf_percent$$00000000) for _printf_percent
    __printf_flags_ss.o(.text) refers to _printf_percent.o(.ARM.Collect$$_printf_percent$$00000000) for _printf_percent
    __printf_flags_ss.o(.text) refers to __printf_flags_ss.o(.constdata) for .constdata
    __printf_wp.o(.text) refers to __printf_wp.o(i._is_digit) for _is_digit
    __printf_wp.o(.text) refers to _printf_percent.o(.ARM.Collect$$_printf_percent$$00000000) for _printf_percent
    __printf_flags_wp.o(.text) refers to __printf_wp.o(i._is_digit) for _is_digit
    __printf_flags_wp.o(.text) refers to _printf_percent.o(.ARM.Collect$$_printf_percent$$00000000) for _printf_percent
    __printf_flags_wp.o(.text) refers to __printf_flags_wp.o(.constdata) for .constdata
    __printf_ss_wp.o(.text) refers to __printf_wp.o(i._is_digit) for _is_digit
    __printf_ss_wp.o(.text) refers to _printf_percent.o(.ARM.Collect$$_printf_percent$$00000000) for _printf_percent
    __printf_flags_ss_wp.o(.text) refers to __printf_wp.o(i._is_digit) for _is_digit
    __printf_flags_ss_wp.o(.text) refers to _printf_percent.o(.ARM.Collect$$_printf_percent$$00000000) for _printf_percent
    __printf_flags_ss_wp.o(.text) refers to __printf_flags_ss_wp.o(.constdata) for .constdata
    _printf_s.o(.ARM.Collect$$_printf_percent$$00000014) refers (Weak) to _printf_char.o(.text) for _printf_string
    _printf_x.o(.ARM.Collect$$_printf_percent$$0000000C) refers (Weak) to _printf_hex_int_ll_ptr.o(.text) for _printf_int_hex
    _printf_d.o(.ARM.Collect$$_printf_percent$$00000009) refers (Weak) to _printf_dec.o(.text) for _printf_int_dec
    _printf_percent.o(.ARM.Collect$$_printf_percent$$00000000) refers (Special) to _printf_percent_end.o(.ARM.Collect$$_printf_percent$$00000017) for _printf_percent_end
    rt_memcpy_v6.o(.text) refers to rt_memcpy_w.o(.text) for __aeabi_memcpy4
    rt_memclr.o(.text) refers to rt_memclr_w.o(.text) for _memset_w
    __main.o(!!!main) refers to __rtentry.o(.ARM.Collect$$rtentry$$00000000) for __rt_entry
    __rtentry.o(.ARM.Collect$$rtentry$$00000000) refers (Special) to __rtentry2.o(.ARM.Collect$$rtentry$$0000000A) for __rt_entry_li
    __rtentry.o(.ARM.Collect$$rtentry$$00000000) refers (Special) to __rtentry2.o(.ARM.Collect$$rtentry$$0000000D) for __rt_entry_main
    __rtentry.o(.ARM.Collect$$rtentry$$00000000) refers (Special) to __rtentry2.o(.ARM.Collect$$rtentry$$0000000C) for __rt_entry_postli_1
    __rtentry.o(.ARM.Collect$$rtentry$$00000000) refers (Special) to __rtentry2.o(.ARM.Collect$$rtentry$$00000009) for __rt_entry_postsh_1
    __rtentry.o(.ARM.Collect$$rtentry$$00000000) refers (Special) to __rtentry2.o(.ARM.Collect$$rtentry$$00000002) for __rt_entry_presh_1
    __rtentry.o(.ARM.Collect$$rtentry$$00000000) refers (Special) to __rtentry4.o(.ARM.Collect$$rtentry$$00000004) for __rt_entry_sh
    rt_heap_descriptor.o(.text) refers to rt_heap_descriptor.o(.bss) for __rt_heap_descriptor_data
    rt_heap_descriptor_intlibspace.o(.text) refers to libspace.o(.bss) for __libspace_start
    init_alloc.o(.text) refers (Special) to hguard.o(.text) for __heap$guard
    init_alloc.o(.text) refers (Special) to libinit2.o(.ARM.Collect$$libinit$$00000005) for __rt_lib_init_heap_2
    init_alloc.o(.text) refers (Special) to maybetermalloc1.o(.emb_text) for _maybe_terminate_alloc
    init_alloc.o(.text) refers to h1_extend.o(.text) for __Heap_ProvideMemory
    init_alloc.o(.text) refers to defsig_rtmem_outer.o(.text) for __rt_SIGRTMEM
    init_alloc.o(.text) refers to rt_heap_descriptor_intlibspace.o(.text) for __rt_heap_descriptor
    init_alloc.o(.text) refers to h1_init.o(.text) for __Heap_Initialize
    free.o(.text) refers (Special) to hguard.o(.text) for __heap$guard
    free.o(.text) refers to rt_heap_descriptor_intlibspace.o(.text) for __rt_heap_descriptor
    free.o(.text) refers to heapstubs.o(.text) for __Heap_Free
    h1_free.o(.text) refers to rt_heap_descriptor_intlibspace.o(.text) for __rt_heap_descriptor
    h1_init_mt.o(.text) refers to mutex_dummy.o(.text) for _mutex_initialize
    h1_free_mt.o(.text) refers to rt_heap_descriptor_intlibspace.o(.text) for __rt_heap_descriptor
    _printf_intcommon.o(.text) refers (Weak) to _printf_pad.o(.text) for _printf_pre_padding
    _printf_intcommon.o(.text) refers (Weak) to _printf_pad.o(.text) for _printf_pre_padding
    _printf_intcommon.o(.text) refers (Weak) to _printf_pad.o(.text) for _printf_post_padding
    _printf_char_common.o(.text) refers to __printf_flags_ss_wp.o(.text) for __printf
    _printf_char.o(.text) refers (Weak) to _printf_str.o(.text) for _printf_str
    _printf_char_file.o(.text) refers to _printf_char_common.o(.text) for _printf_char_common
    _printf_char_file.o(.text) refers to ferror.o(.text) for ferror
    _printf_char_file.o(.text) refers to usart.o(i.fputc) for fputc
    _printf_wctomb.o(.text) refers (Special) to _printf_wchar.o(.text) for _printf_lcs_common
    _printf_wctomb.o(.text) refers to _wcrtomb.o(.text) for _wcrtomb
    _printf_wctomb.o(.text) refers (Weak) to _printf_pad.o(.text) for _printf_pre_padding
    _printf_wctomb.o(.text) refers (Weak) to _printf_pad.o(.text) for _printf_post_padding
    _printf_wctomb.o(.text) refers to _printf_wctomb.o(.constdata) for .constdata
    _printf_wctomb.o(.constdata) refers (Special) to _printf_wchar.o(.text) for _printf_lcs_common
    _printf_longlong_dec.o(.text) refers to lludiv10.o(.text) for _ll_udiv10
    _printf_longlong_dec.o(.text) refers to _printf_intcommon.o(.text) for _printf_int_common
    _printf_oct_ll.o(.text) refers to _printf_intcommon.o(.text) for _printf_int_common
    _printf_oct_int.o(.text) refers (Weak) to _printf_truncate.o(.text) for _printf_truncate_unsigned
    _printf_oct_int.o(.text) refers to _printf_intcommon.o(.text) for _printf_int_common
    _printf_oct_int_ll.o(.text) refers to _printf_intcommon.o(.text) for _printf_int_common
    _printf_oct_int_ll.o(.text) refers (Weak) to _printf_truncate.o(.text) for _printf_truncate_unsigned
    _printf_c.o(.ARM.Collect$$_printf_percent$$00000013) refers (Weak) to _printf_char.o(.text) for _printf_char
    _printf_n.o(.ARM.Collect$$_printf_percent$$00000001) refers (Weak) to _printf_charcount.o(.text) for _printf_charcount
    _printf_p.o(.ARM.Collect$$_printf_percent$$00000002) refers (Weak) to _printf_hex_int_ll_ptr.o(.text) for _printf_hex_ptr
    _printf_o.o(.ARM.Collect$$_printf_percent$$0000000B) refers (Weak) to _printf_oct_int_ll.o(.text) for _printf_int_oct
    _printf_i.o(.ARM.Collect$$_printf_percent$$00000008) refers (Weak) to _printf_dec.o(.text) for _printf_int_dec
    _printf_u.o(.ARM.Collect$$_printf_percent$$0000000A) refers (Weak) to _printf_dec.o(.text) for _printf_int_dec
    _printf_f.o(.ARM.Collect$$_printf_percent$$00000003) refers (Weak) to printf1.o(x$fpl$printf1) for _printf_fp_dec
    _printf_e.o(.ARM.Collect$$_printf_percent$$00000004) refers (Weak) to printf1.o(x$fpl$printf1) for _printf_fp_dec
    _printf_g.o(.ARM.Collect$$_printf_percent$$00000005) refers (Weak) to printf1.o(x$fpl$printf1) for _printf_fp_dec
    _printf_lli.o(.ARM.Collect$$_printf_percent$$0000000D) refers (Special) to _printf_ll.o(.ARM.Collect$$_printf_percent$$00000007) for _printf_ll
    _printf_lli.o(.ARM.Collect$$_printf_percent$$0000000D) refers (Weak) to _printf_longlong_dec.o(.text) for _printf_longlong_dec
    _printf_lld.o(.ARM.Collect$$_printf_percent$$0000000E) refers (Special) to _printf_ll.o(.ARM.Collect$$_printf_percent$$00000007) for _printf_ll
    _printf_lld.o(.ARM.Collect$$_printf_percent$$0000000E) refers (Weak) to _printf_longlong_dec.o(.text) for _printf_longlong_dec
    _printf_llu.o(.ARM.Collect$$_printf_percent$$0000000F) refers (Special) to _printf_ll.o(.ARM.Collect$$_printf_percent$$00000007) for _printf_ll
    _printf_llu.o(.ARM.Collect$$_printf_percent$$0000000F) refers (Weak) to _printf_longlong_dec.o(.text) for _printf_longlong_dec
    _printf_lc.o(.ARM.Collect$$_printf_percent$$00000015) refers (Special) to _printf_l.o(.ARM.Collect$$_printf_percent$$00000012) for _printf_l
    _printf_lc.o(.ARM.Collect$$_printf_percent$$00000015) refers (Weak) to _printf_wchar.o(.text) for _printf_wchar
    _printf_ls.o(.ARM.Collect$$_printf_percent$$00000016) refers (Special) to _printf_l.o(.ARM.Collect$$_printf_percent$$00000012) for _printf_l
    _printf_ls.o(.ARM.Collect$$_printf_percent$$00000016) refers (Weak) to _printf_wchar.o(.text) for _printf_wstring
    _printf_llo.o(.ARM.Collect$$_printf_percent$$00000010) refers (Special) to _printf_ll.o(.ARM.Collect$$_printf_percent$$00000007) for _printf_ll
    _printf_llo.o(.ARM.Collect$$_printf_percent$$00000010) refers (Weak) to _printf_oct_int_ll.o(.text) for _printf_ll_oct
    _printf_llx.o(.ARM.Collect$$_printf_percent$$00000011) refers (Special) to _printf_ll.o(.ARM.Collect$$_printf_percent$$00000007) for _printf_ll
    _printf_llx.o(.ARM.Collect$$_printf_percent$$00000011) refers (Weak) to _printf_hex_int_ll_ptr.o(.text) for _printf_ll_hex
    _get_argv.o(.text) refers (Special) to hrguard.o(.text) for __heap_region$guard
    _get_argv.o(.text) refers to h1_alloc.o(.text) for malloc
    _get_argv.o(.text) refers to defsig_rtmem_outer.o(.text) for __rt_SIGRTMEM
    _get_argv.o(.text) refers to sys_command.o(.text) for _sys_command_string
    libinit2.o(.ARM.Collect$$libinit$$00000005) refers (Weak) to init_alloc.o(.text) for _init_alloc
    libinit2.o(.ARM.Collect$$libinit$$0000000F) refers (Weak) to rt_locale_intlibspace.o(.text) for __rt_locale
    libinit2.o(.ARM.Collect$$libinit$$00000010) refers to libinit2.o(.ARM.Collect$$libinit$$0000000F) for .ARM.Collect$$libinit$$0000000F
    libinit2.o(.ARM.Collect$$libinit$$00000012) refers to libinit2.o(.ARM.Collect$$libinit$$0000000F) for .ARM.Collect$$libinit$$0000000F
    libinit2.o(.ARM.Collect$$libinit$$00000012) refers (Weak) to lc_ctype_c.o(locale$$code) for _get_lc_ctype
    libinit2.o(.ARM.Collect$$libinit$$00000014) refers to libinit2.o(.ARM.Collect$$libinit$$0000000F) for .ARM.Collect$$libinit$$0000000F
    libinit2.o(.ARM.Collect$$libinit$$00000016) refers to libinit2.o(.ARM.Collect$$libinit$$0000000F) for .ARM.Collect$$libinit$$0000000F
    libinit2.o(.ARM.Collect$$libinit$$00000016) refers (Weak) to lc_numeric_c.o(locale$$code) for _get_lc_numeric
    libinit2.o(.ARM.Collect$$libinit$$00000018) refers to libinit2.o(.ARM.Collect$$libinit$$0000000F) for .ARM.Collect$$libinit$$0000000F
    libinit2.o(.ARM.Collect$$libinit$$00000026) refers to argv_veneer.o(.emb_text) for __ARM_argv_veneer
    libinit2.o(.ARM.Collect$$libinit$$00000027) refers to argv_veneer.o(.emb_text) for __ARM_argv_veneer
    printf1.o(x$fpl$printf1) refers to _printf_fp_dec.o(.text) for _printf_fp_dec_real
    sys_command.o(.text) refers (Special) to use_no_semi.o(.text) for __I$use$semihosting
    sys_command.o(.text) refers (Special) to indicate_semi.o(.text) for __semihosting_library_function
    libspace.o(.text) refers to libspace.o(.bss) for __libspace_start
    __rtentry2.o(.ARM.Collect$$rtentry$$00000008) refers to boardinit2.o(.text) for _platform_post_stackheap_init
    __rtentry2.o(.ARM.Collect$$rtentry$$0000000A) refers to libinit.o(.ARM.Collect$$libinit$$00000000) for __rt_lib_init
    __rtentry2.o(.ARM.Collect$$rtentry$$0000000B) refers to boardinit3.o(.text) for _platform_post_lib_init
    __rtentry2.o(.ARM.Collect$$rtentry$$0000000D) refers to main.o(i.main) for main
    __rtentry2.o(.ARM.Collect$$rtentry$$0000000D) refers to exit.o(.text) for exit
    __rtentry2.o(.ARM.exidx) refers to __rtentry2.o(.ARM.Collect$$rtentry$$00000001) for .ARM.Collect$$rtentry$$00000001
    __rtentry2.o(.ARM.exidx) refers to __rtentry2.o(.ARM.Collect$$rtentry$$00000008) for .ARM.Collect$$rtentry$$00000008
    __rtentry2.o(.ARM.exidx) refers to __rtentry2.o(.ARM.Collect$$rtentry$$0000000A) for .ARM.Collect$$rtentry$$0000000A
    __rtentry2.o(.ARM.exidx) refers to __rtentry2.o(.ARM.Collect$$rtentry$$0000000B) for .ARM.Collect$$rtentry$$0000000B
    __rtentry2.o(.ARM.exidx) refers to __rtentry2.o(.ARM.Collect$$rtentry$$0000000D) for .ARM.Collect$$rtentry$$0000000D
    __rtentry4.o(.ARM.Collect$$rtentry$$00000004) refers to sys_stackheap_outer.o(.text) for __user_setup_stackheap
    __rtentry4.o(.ARM.exidx) refers to __rtentry4.o(.ARM.Collect$$rtentry$$00000004) for .ARM.Collect$$rtentry$$00000004
    maybetermalloc2.o(.emb_text) refers (Special) to term_alloc.o(.text) for _terminate_alloc
    h1_extend.o(.text) refers to h1_free.o(.text) for free
    h1_extend_mt.o(.text) refers to h1_free_mt.o(.text) for _free_internal
    _printf_fp_dec.o(.text) refers (Special) to usenofp.o(x$fpl$usenofp) for __I$use$fp
    _printf_fp_dec.o(.text) refers (Special) to lc_numeric_c.o(locale$$code) for _get_lc_numeric
    _printf_fp_dec.o(.text) refers to bigflt0.o(.text) for _btod_etento
    _printf_fp_dec.o(.text) refers to btod.o(CL$$btod_d2e) for _btod_d2e
    _printf_fp_dec.o(.text) refers to btod.o(CL$$btod_ediv) for _btod_ediv
    _printf_fp_dec.o(.text) refers to btod.o(CL$$btod_emul) for _btod_emul
    _printf_fp_dec.o(.text) refers to lludiv10.o(.text) for _ll_udiv10
    _printf_fp_dec.o(.text) refers to fpclassify.o(i.__ARM_fpclassify) for __ARM_fpclassify
    _printf_fp_dec.o(.text) refers to _printf_fp_infnan.o(.text) for _printf_fp_infnan
    _printf_fp_dec.o(.text) refers (Weak) to _printf_pad.o(.text) for _printf_pre_padding
    _printf_fp_dec.o(.text) refers (Weak) to _printf_pad.o(.text) for _printf_pre_padding
    _printf_fp_dec.o(.text) refers to rt_locale_intlibspace.o(.text) for __rt_locale
    _printf_fp_dec.o(.text) refers (Weak) to _printf_pad.o(.text) for _printf_post_padding
    _printf_wchar.o(.text) refers (Weak) to _printf_wctomb.o(.text) for _printf_wctomb
    _wcrtomb.o(.text) refers to rt_ctype_table.o(.text) for __rt_ctype_table
    defsig_rtmem_outer.o(.text) refers to defsig_rtmem_inner.o(.text) for __rt_SIGRTMEM_inner
    defsig_rtmem_outer.o(.text) refers to defsig_exit.o(.text) for __sig_exit
    defsig_rtmem_formal.o(.text) refers to rt_raise.o(.text) for __rt_raise
    heapauxa.o(.text) refers to heapauxa.o(.data) for .data
    argv_veneer.o(.emb_text) refers to no_argv.o(.text) for __ARM_get_argv
    sys_stackheap_outer.o(.text) refers to libspace.o(.text) for __user_perproc_libspace
    sys_stackheap_outer.o(.text) refers to startup_stm32f10x_md.o(.text) for __user_initial_stackheap
    rt_ctype_table.o(.text) refers to rt_locale_intlibspace.o(.text) for __rt_locale
    rt_ctype_table.o(.text) refers to lc_ctype_c.o(locale$$code) for _get_lc_ctype
    rt_raise.o(.text) refers to __raise.o(.text) for __raise
    rt_raise.o(.text) refers to usart.o(i._sys_exit) for _sys_exit
    rt_locale.o(.text) refers to rt_locale.o(.bss) for __rt_locale_data
    rt_locale_intlibspace.o(.text) refers to libspace.o(.bss) for __libspace_start
    term_alloc.o(.text) refers (Special) to libshutdown2.o(.ARM.Collect$$libshutdown$$0000000D) for __rt_lib_shutdown_heap_2
    term_alloc.o(.text) refers to rt_heap_descriptor_intlibspace.o(.text) for __rt_heap_descriptor
    term_alloc.o(.text) refers to h1_final.o(.text) for __Heap_Finalize
    _printf_fp_infnan.o(.text) refers (Weak) to _printf_pad.o(.text) for _printf_pre_padding
    _printf_fp_infnan.o(.text) refers (Weak) to _printf_pad.o(.text) for _printf_post_padding
    bigflt0.o(.text) refers (Special) to usenofp.o(x$fpl$usenofp) for __I$use$fp
    bigflt0.o(.text) refers to btod.o(CL$$btod_emul) for _btod_emul
    bigflt0.o(.text) refers to btod.o(CL$$btod_ediv) for _btod_ediv
    bigflt0.o(.text) refers to bigflt0.o(.constdata) for .constdata
    bigflt0.o(.constdata) refers (Special) to usenofp.o(x$fpl$usenofp) for __I$use$fp
    btod.o(CL$$btod_d2e) refers (Special) to usenofp.o(x$fpl$usenofp) for __I$use$fp
    btod.o(CL$$btod_d2e) refers to btod.o(CL$$btod_d2e_norm_op1) for _d2e_norm_op1
    btod.o(CL$$btod_d2e_norm_op1) refers (Special) to usenofp.o(x$fpl$usenofp) for __I$use$fp
    btod.o(CL$$btod_d2e_norm_op1) refers to btod.o(CL$$btod_d2e_denorm_low) for _d2e_denorm_low
    btod.o(CL$$btod_d2e_denorm_low) refers (Special) to usenofp.o(x$fpl$usenofp) for __I$use$fp
    btod.o(CL$$btod_emul) refers (Special) to usenofp.o(x$fpl$usenofp) for __I$use$fp
    btod.o(CL$$btod_emul) refers to btod.o(CL$$btod_mult_common) for __btod_mult_common
    btod.o(CL$$btod_emul) refers to btod.o(CL$$btod_e2e) for _e2e
    btod.o(CL$$btod_ediv) refers (Special) to usenofp.o(x$fpl$usenofp) for __I$use$fp
    btod.o(CL$$btod_ediv) refers to btod.o(CL$$btod_div_common) for __btod_div_common
    btod.o(CL$$btod_ediv) refers to btod.o(CL$$btod_e2e) for _e2e
    btod.o(CL$$btod_emuld) refers (Special) to usenofp.o(x$fpl$usenofp) for __I$use$fp
    btod.o(CL$$btod_emuld) refers to btod.o(CL$$btod_mult_common) for __btod_mult_common
    btod.o(CL$$btod_emuld) refers to btod.o(CL$$btod_e2d) for _e2d
    btod.o(CL$$btod_edivd) refers (Special) to usenofp.o(x$fpl$usenofp) for __I$use$fp
    btod.o(CL$$btod_edivd) refers to btod.o(CL$$btod_div_common) for __btod_div_common
    btod.o(CL$$btod_edivd) refers to btod.o(CL$$btod_e2d) for _e2d
    btod.o(CL$$btod_e2e) refers (Special) to usenofp.o(x$fpl$usenofp) for __I$use$fp
    btod.o(CL$$btod_e2d) refers (Special) to usenofp.o(x$fpl$usenofp) for __I$use$fp
    btod.o(CL$$btod_e2d) refers to btod.o(CL$$btod_e2e) for _e2e
    btod.o(CL$$btod_mult_common) refers (Special) to usenofp.o(x$fpl$usenofp) for __I$use$fp
    btod.o(CL$$btod_div_common) refers (Special) to usenofp.o(x$fpl$usenofp) for __I$use$fp
    lc_numeric_c.o(locale$$data) refers (Special) to libinit2.o(.ARM.Collect$$libinit$$00000016) for __rt_lib_init_lc_numeric_2
    lc_numeric_c.o(locale$$code) refers (Special) to libinit2.o(.ARM.Collect$$libinit$$00000016) for __rt_lib_init_lc_numeric_2
    lc_numeric_c.o(locale$$code) refers to strcmpv7m.o(.text) for strcmp
    lc_numeric_c.o(locale$$code) refers to lc_numeric_c.o(locale$$data) for __lcnum_c_name
    exit.o(.text) refers to rtexit.o(.ARM.Collect$$rtexit$$00000000) for __rt_exit
    defsig_exit.o(.text) refers to usart.o(i._sys_exit) for _sys_exit
    defsig_rtmem_inner.o(.text) refers to defsig_general.o(.text) for __default_signal_display
    _get_argv_nomalloc.o(.text) refers (Special) to hrguard.o(.text) for __heap_region$guard
    _get_argv_nomalloc.o(.text) refers to defsig_rtmem_outer.o(.text) for __rt_SIGRTMEM
    _get_argv_nomalloc.o(.text) refers to sys_command.o(.text) for _sys_command_string
    libinit.o(.ARM.Collect$$libinit$$00000000) refers (Special) to libinit2.o(.ARM.Collect$$libinit$$0000002E) for __rt_lib_init_alloca_1
    libinit.o(.ARM.Collect$$libinit$$00000000) refers (Special) to libinit2.o(.ARM.Collect$$libinit$$0000002C) for __rt_lib_init_argv_1
    libinit.o(.ARM.Collect$$libinit$$00000000) refers (Special) to libinit2.o(.ARM.Collect$$libinit$$0000001B) for __rt_lib_init_atexit_1
    libinit.o(.ARM.Collect$$libinit$$00000000) refers (Special) to libinit2.o(.ARM.Collect$$libinit$$00000021) for __rt_lib_init_clock_1
    libinit.o(.ARM.Collect$$libinit$$00000000) refers (Special) to libinit2.o(.ARM.Collect$$libinit$$00000032) for __rt_lib_init_cpp_1
    libinit.o(.ARM.Collect$$libinit$$00000000) refers (Special) to libinit2.o(.ARM.Collect$$libinit$$00000030) for __rt_lib_init_exceptions_1
    libinit.o(.ARM.Collect$$libinit$$00000000) refers (Special) to libinit2.o(.ARM.Collect$$libinit$$00000002) for __rt_lib_init_fp_1
    libinit.o(.ARM.Collect$$libinit$$00000000) refers (Special) to libinit2.o(.ARM.Collect$$libinit$$0000001F) for __rt_lib_init_fp_trap_1
    libinit.o(.ARM.Collect$$libinit$$00000000) refers (Special) to libinit2.o(.ARM.Collect$$libinit$$00000023) for __rt_lib_init_getenv_1
    libinit.o(.ARM.Collect$$libinit$$00000000) refers (Special) to libinit2.o(.ARM.Collect$$libinit$$0000000A) for __rt_lib_init_heap_1
    libinit.o(.ARM.Collect$$libinit$$00000000) refers (Special) to libinit2.o(.ARM.Collect$$libinit$$00000011) for __rt_lib_init_lc_collate_1
    libinit.o(.ARM.Collect$$libinit$$00000000) refers (Special) to libinit2.o(.ARM.Collect$$libinit$$00000013) for __rt_lib_init_lc_ctype_1
    libinit.o(.ARM.Collect$$libinit$$00000000) refers (Special) to libinit2.o(.ARM.Collect$$libinit$$00000015) for __rt_lib_init_lc_monetary_1
    libinit.o(.ARM.Collect$$libinit$$00000000) refers (Special) to libinit2.o(.ARM.Collect$$libinit$$00000017) for __rt_lib_init_lc_numeric_1
    libinit.o(.ARM.Collect$$libinit$$00000000) refers (Special) to libinit2.o(.ARM.Collect$$libinit$$00000019) for __rt_lib_init_lc_time_1
    libinit.o(.ARM.Collect$$libinit$$00000000) refers (Special) to libinit2.o(.ARM.Collect$$libinit$$00000004) for __rt_lib_init_preinit_1
    libinit.o(.ARM.Collect$$libinit$$00000000) refers (Special) to libinit2.o(.ARM.Collect$$libinit$$0000000E) for __rt_lib_init_rand_1
    libinit.o(.ARM.Collect$$libinit$$00000000) refers (Special) to libinit2.o(.ARM.Collect$$libinit$$00000033) for __rt_lib_init_return
    libinit.o(.ARM.Collect$$libinit$$00000000) refers (Special) to libinit2.o(.ARM.Collect$$libinit$$0000001D) for __rt_lib_init_signal_1
    libinit.o(.ARM.Collect$$libinit$$00000000) refers (Special) to libinit2.o(.ARM.Collect$$libinit$$00000025) for __rt_lib_init_stdio_1
    libinit.o(.ARM.Collect$$libinit$$00000000) refers (Special) to libinit2.o(.ARM.Collect$$libinit$$0000000C) for __rt_lib_init_user_alloc_1
    istatus.o(x$fpl$ieeestatus) refers (Special) to usenofp.o(x$fpl$usenofp) for __I$use$fp
    fpclassify.o(i.__ARM_fpclassify) refers (Special) to usenofp.o(x$fpl$usenofp) for __I$use$fp
    rtexit.o(.ARM.Collect$$rtexit$$00000000) refers (Special) to rtexit2.o(.ARM.Collect$$rtexit$$00000004) for __rt_exit_exit
    rtexit.o(.ARM.Collect$$rtexit$$00000000) refers (Special) to rtexit2.o(.ARM.Collect$$rtexit$$00000003) for __rt_exit_ls
    rtexit.o(.ARM.Collect$$rtexit$$00000000) refers (Special) to rtexit2.o(.ARM.Collect$$rtexit$$00000002) for __rt_exit_prels_1
    rtexit.o(.ARM.exidx) refers (Special) to rtexit2.o(.ARM.Collect$$rtexit$$00000004) for __rt_exit_exit
    rtexit.o(.ARM.exidx) refers (Special) to rtexit2.o(.ARM.Collect$$rtexit$$00000003) for __rt_exit_ls
    rtexit.o(.ARM.exidx) refers (Special) to rtexit2.o(.ARM.Collect$$rtexit$$00000002) for __rt_exit_prels_1
    rtexit.o(.ARM.exidx) refers to rtexit.o(.ARM.Collect$$rtexit$$00000000) for .ARM.Collect$$rtexit$$00000000
    lc_ctype_c.o(locale$$data) refers (Special) to libinit2.o(.ARM.Collect$$libinit$$00000012) for __rt_lib_init_lc_ctype_2
    lc_ctype_c.o(locale$$code) refers (Special) to libinit2.o(.ARM.Collect$$libinit$$00000012) for __rt_lib_init_lc_ctype_2
    lc_ctype_c.o(locale$$code) refers to strcmpv7m.o(.text) for strcmp
    lc_ctype_c.o(locale$$code) refers to lc_ctype_c.o(locale$$data) for __lcctype_c_name
    __raise.o(.text) refers to defsig.o(CL$$defsig) for __default_signal_handler
    defsig_general.o(.text) refers to sys_wrch.o(.text) for _ttywrch
    libshutdown2.o(.ARM.Collect$$libshutdown$$0000000C) refers (Weak) to term_alloc.o(.text) for _terminate_alloc
    sys_wrch.o(.text) refers (Special) to use_no_semi.o(.text) for __I$use$semihosting
    sys_wrch.o(.text) refers (Special) to indicate_semi.o(.text) for __semihosting_library_function
    rtexit2.o(.ARM.Collect$$rtexit$$00000003) refers to libshutdown.o(.ARM.Collect$$libshutdown$$00000000) for __rt_lib_shutdown
    rtexit2.o(.ARM.Collect$$rtexit$$00000004) refers to usart.o(i._sys_exit) for _sys_exit
    rtexit2.o(.ARM.exidx) refers to rtexit2.o(.ARM.Collect$$rtexit$$00000001) for .ARM.Collect$$rtexit$$00000001
    rtexit2.o(.ARM.exidx) refers to rtexit2.o(.ARM.Collect$$rtexit$$00000003) for .ARM.Collect$$rtexit$$00000003
    rtexit2.o(.ARM.exidx) refers to rtexit2.o(.ARM.Collect$$rtexit$$00000004) for .ARM.Collect$$rtexit$$00000004
    defsig.o(CL$$defsig) refers to defsig_rtmem_inner.o(.text) for __rt_SIGRTMEM_inner
    defsig_abrt_inner.o(.text) refers to defsig_general.o(.text) for __default_signal_display
    defsig_fpe_inner.o(.text) refers to defsig_general.o(.text) for __default_signal_display
    defsig_rtred_inner.o(.text) refers to defsig_general.o(.text) for __default_signal_display
    defsig_stak_inner.o(.text) refers to defsig_general.o(.text) for __default_signal_display
    defsig_pvfn_inner.o(.text) refers to defsig_general.o(.text) for __default_signal_display
    defsig_cppl_inner.o(.text) refers to defsig_general.o(.text) for __default_signal_display
    defsig_segv_inner.o(.text) refers to defsig_general.o(.text) for __default_signal_display
    defsig_other.o(.text) refers to defsig_general.o(.text) for __default_signal_display
    libshutdown.o(.ARM.Collect$$libshutdown$$00000000) refers (Special) to libshutdown2.o(.ARM.Collect$$libshutdown$$00000006) for __rt_lib_shutdown_fp_trap_1
    libshutdown.o(.ARM.Collect$$libshutdown$$00000000) refers (Special) to libshutdown2.o(.ARM.Collect$$libshutdown$$0000000E) for __rt_lib_shutdown_heap_1
    libshutdown.o(.ARM.Collect$$libshutdown$$00000000) refers (Special) to libshutdown2.o(.ARM.Collect$$libshutdown$$0000000F) for __rt_lib_shutdown_return
    libshutdown.o(.ARM.Collect$$libshutdown$$00000000) refers (Special) to libshutdown2.o(.ARM.Collect$$libshutdown$$00000009) for __rt_lib_shutdown_signal_1
    libshutdown.o(.ARM.Collect$$libshutdown$$00000000) refers (Special) to libshutdown2.o(.ARM.Collect$$libshutdown$$00000003) for __rt_lib_shutdown_stdio_1
    libshutdown.o(.ARM.Collect$$libshutdown$$00000000) refers (Special) to libshutdown2.o(.ARM.Collect$$libshutdown$$0000000B) for __rt_lib_shutdown_user_alloc_1


==============================================================================

Removing Unused input sections from the image.

    Removing system_stm32f10x.o(i.SystemCoreClockUpdate), (164 bytes).
    Removing core_cm3.o(.emb_text), (32 bytes).
    Removing os_core.o(i.OSStatInit), (76 bytes).
    Removing os_core.o(i.OSVersion), (6 bytes).
    Removing os_core.o(i.OS_Dummy), (2 bytes).
    Removing os_core.o(i.OS_MemCopy), (20 bytes).
    Removing os_core.o(i.OS_StrLen), (20 bytes).
    Removing os_flag.o(i.OSFlagAccept), (252 bytes).
    Removing os_flag.o(i.OSFlagCreate), (100 bytes).
    Removing os_flag.o(i.OSFlagDel), (228 bytes).
    Removing os_flag.o(i.OSFlagNameGet), (84 bytes).
    Removing os_flag.o(i.OSFlagNameSet), (72 bytes).
    Removing os_flag.o(i.OSFlagPend), (596 bytes).
    Removing os_flag.o(i.OSFlagPendGetFlagsRdy), (32 bytes).
    Removing os_flag.o(i.OSFlagPost), (312 bytes).
    Removing os_flag.o(i.OSFlagQuery), (48 bytes).
    Removing os_flag.o(i.OS_FlagBlock), (164 bytes).
    Removing os_flag.o(i.OS_FlagTaskRdy), (92 bytes).
    Removing os_flag.o(i.OS_FlagUnlink), (36 bytes).
    Removing os_mbox.o(i.OSMboxAccept), (38 bytes).
    Removing os_mbox.o(i.OSMboxCreate), (76 bytes).
    Removing os_mbox.o(i.OSMboxDel), (208 bytes).
    Removing os_mbox.o(i.OSMboxPend), (260 bytes).
    Removing os_mbox.o(i.OSMboxPendAbort), (128 bytes).
    Removing os_mbox.o(i.OSMboxPost), (80 bytes).
    Removing os_mbox.o(i.OSMboxPostOpt), (120 bytes).
    Removing os_mbox.o(i.OSMboxQuery), (76 bytes).
    Removing os_mutex.o(i.OSMutexAccept), (144 bytes).
    Removing os_mutex.o(i.OSMutexDel), (280 bytes).
    Removing os_mutex.o(i.OSMutexQuery), (112 bytes).
    Removing os_q.o(i.OSQAccept), (88 bytes).
    Removing os_q.o(i.OSQCreate), (152 bytes).
    Removing os_q.o(i.OSQDel), (248 bytes).
    Removing os_q.o(i.OSQFlush), (36 bytes).
    Removing os_q.o(i.OSQPend), (284 bytes).
    Removing os_q.o(i.OSQPendAbort), (128 bytes).
    Removing os_q.o(i.OSQPost), (114 bytes).
    Removing os_q.o(i.OSQPostFront), (116 bytes).
    Removing os_q.o(i.OSQPostOpt), (182 bytes).
    Removing os_q.o(i.OSQQuery), (98 bytes).
    Removing os_sem.o(i.OSSemAccept), (42 bytes).
    Removing os_sem.o(i.OSSemDel), (208 bytes).
    Removing os_sem.o(i.OSSemPendAbort), (128 bytes).
    Removing os_sem.o(i.OSSemQuery), (76 bytes).
    Removing os_sem.o(i.OSSemSet), (66 bytes).
    Removing os_task.o(i.OSTaskChangePrio), (328 bytes).
    Removing os_task.o(i.OSTaskCreate), (160 bytes).
    Removing os_task.o(i.OSTaskDel), (340 bytes).
    Removing os_task.o(i.OSTaskDelReq), (108 bytes).
    Removing os_task.o(i.OSTaskNameGet), (128 bytes).
    Removing os_task.o(i.OSTaskQuery), (92 bytes).
    Removing os_task.o(i.OSTaskRegGet), (68 bytes).
    Removing os_task.o(i.OSTaskRegSet), (72 bytes).
    Removing os_task.o(i.OS_TaskReturn), (24 bytes).
    Removing os_time.o(i.OSTimeDlyResume), (180 bytes).
    Removing os_time.o(i.OSTimeGet), (28 bytes).
    Removing os_time.o(i.OSTimeSet), (28 bytes).
    Removing os_tmr.o(i.OSTmrCreate), (100 bytes).
    Removing os_tmr.o(i.OSTmrDel), (128 bytes).
    Removing os_tmr.o(i.OSTmrNameGet), (120 bytes).
    Removing os_tmr.o(i.OSTmrRemainGet), (172 bytes).
    Removing os_tmr.o(i.OSTmrStart), (132 bytes).
    Removing os_tmr.o(i.OSTmrStateGet), (92 bytes).
    Removing os_tmr.o(i.OSTmrStop), (184 bytes).
    Removing os_tmr.o(i.OSTmr_Alloc), (64 bytes).
    Removing os_tmr.o(i.OSTmr_Free), (76 bytes).
    Removing os_cpu_c.o(i.OSTaskDelHook), (2 bytes).
    Removing os_cpu_c.o(i.OSTaskReturnHook), (2 bytes).
    Removing can.o(i.can_tx), (60 bytes).
    Removing can.o(.data), (5 bytes).
    Removing usart2.o(i.u2_printf), (64 bytes).
    Removing wwdg.o(i.WWDG_Init), (48 bytes).
    Removing wwdg.o(i.WWDG_NVIC_Init), (34 bytes).
    Removing wwdg.o(i.WWDG_Set_Counter), (12 bytes).
    Removing wwdg.o(.data), (1 bytes).
    Removing delay.o(i.delay_ms), (80 bytes).
    Removing delay.o(i.delay_osschedlock), (8 bytes).
    Removing delay.o(i.delay_osschedunlock), (8 bytes).
    Removing delay.o(i.delay_ostimedly), (12 bytes).
    Removing delay.o(i.delay_us), (92 bytes).
    Removing sys.o(.emb_text), (6 bytes).
    Removing sys.o(i.INTX_DISABLE), (4 bytes).
    Removing sys.o(i.INTX_ENABLE), (4 bytes).
    Removing sys.o(i.WFI_SET), (4 bytes).
    Removing misc.o(i.NVIC_SystemLPConfig), (32 bytes).
    Removing stm32f10x_can.o(i.CAN_CancelTransmit), (48 bytes).
    Removing stm32f10x_can.o(i.CAN_ClearFlag), (56 bytes).
    Removing stm32f10x_can.o(i.CAN_ClearITPendingBit), (168 bytes).
    Removing stm32f10x_can.o(i.CAN_DBGFreeze), (22 bytes).
    Removing stm32f10x_can.o(i.CAN_FIFORelease), (22 bytes).
    Removing stm32f10x_can.o(i.CAN_GetFlagStatus), (120 bytes).
    Removing stm32f10x_can.o(i.CAN_GetITStatus), (288 bytes).
    Removing stm32f10x_can.o(i.CAN_GetLSBTransmitErrorCounter), (12 bytes).
    Removing stm32f10x_can.o(i.CAN_GetLastErrorCode), (12 bytes).
    Removing stm32f10x_can.o(i.CAN_GetReceiveErrorCounter), (10 bytes).
    Removing stm32f10x_can.o(i.CAN_MessagePending), (30 bytes).
    Removing stm32f10x_can.o(i.CAN_OperatingModeRequest), (162 bytes).
    Removing stm32f10x_can.o(i.CAN_SlaveStartBank), (52 bytes).
    Removing stm32f10x_can.o(i.CAN_Sleep), (30 bytes).
    Removing stm32f10x_can.o(i.CAN_TTComModeCmd), (118 bytes).
    Removing stm32f10x_can.o(i.CAN_TransmitStatus), (160 bytes).
    Removing stm32f10x_can.o(i.CAN_WakeUp), (48 bytes).
    Removing stm32f10x_can.o(i.CheckITStatus), (18 bytes).
    Removing stm32f10x_gpio.o(i.GPIO_AFIODeInit), (20 bytes).
    Removing stm32f10x_gpio.o(i.GPIO_DeInit), (200 bytes).
    Removing stm32f10x_gpio.o(i.GPIO_ETH_MediaInterfaceConfig), (12 bytes).
    Removing stm32f10x_gpio.o(i.GPIO_EventOutputCmd), (12 bytes).
    Removing stm32f10x_gpio.o(i.GPIO_EventOutputConfig), (32 bytes).
    Removing stm32f10x_gpio.o(i.GPIO_PinLockConfig), (18 bytes).
    Removing stm32f10x_gpio.o(i.GPIO_ReadInputData), (8 bytes).
    Removing stm32f10x_gpio.o(i.GPIO_ReadOutputData), (8 bytes).
    Removing stm32f10x_gpio.o(i.GPIO_ReadOutputDataBit), (18 bytes).
    Removing stm32f10x_gpio.o(i.GPIO_ResetBits), (4 bytes).
    Removing stm32f10x_gpio.o(i.GPIO_StructInit), (16 bytes).
    Removing stm32f10x_gpio.o(i.GPIO_Write), (4 bytes).
    Removing stm32f10x_gpio.o(i.GPIO_WriteBit), (10 bytes).
    Removing stm32f10x_usart.o(i.USART_ClearFlag), (18 bytes).
    Removing stm32f10x_usart.o(i.USART_ClearITPendingBit), (30 bytes).
    Removing stm32f10x_usart.o(i.USART_ClockInit), (34 bytes).
    Removing stm32f10x_usart.o(i.USART_ClockStructInit), (12 bytes).
    Removing stm32f10x_usart.o(i.USART_GetFlagStatus), (26 bytes).
    Removing stm32f10x_usart.o(i.USART_HalfDuplexCmd), (24 bytes).
    Removing stm32f10x_usart.o(i.USART_IrDACmd), (24 bytes).
    Removing stm32f10x_usart.o(i.USART_IrDAConfig), (18 bytes).
    Removing stm32f10x_usart.o(i.USART_LINBreakDetectLengthConfig), (18 bytes).
    Removing stm32f10x_usart.o(i.USART_LINCmd), (24 bytes).
    Removing stm32f10x_usart.o(i.USART_OneBitMethodCmd), (24 bytes).
    Removing stm32f10x_usart.o(i.USART_OverSampling8Cmd), (22 bytes).
    Removing stm32f10x_usart.o(i.USART_ReceiverWakeUpCmd), (24 bytes).
    Removing stm32f10x_usart.o(i.USART_SendBreak), (10 bytes).
    Removing stm32f10x_usart.o(i.USART_SendData), (8 bytes).
    Removing stm32f10x_usart.o(i.USART_SetAddress), (18 bytes).
    Removing stm32f10x_usart.o(i.USART_SetGuardTime), (16 bytes).
    Removing stm32f10x_usart.o(i.USART_SetPrescaler), (16 bytes).
    Removing stm32f10x_usart.o(i.USART_SmartCardCmd), (24 bytes).
    Removing stm32f10x_usart.o(i.USART_SmartCardNACKCmd), (24 bytes).
    Removing stm32f10x_usart.o(i.USART_StructInit), (24 bytes).
    Removing stm32f10x_usart.o(i.USART_WakeUpConfig), (18 bytes).
    Removing stm32f10x_tim.o(i.TI1_Config), (128 bytes).
    Removing stm32f10x_tim.o(i.TI2_Config), (152 bytes).
    Removing stm32f10x_tim.o(i.TI3_Config), (144 bytes).
    Removing stm32f10x_tim.o(i.TI4_Config), (152 bytes).
    Removing stm32f10x_tim.o(i.TIM_ARRPreloadConfig), (24 bytes).
    Removing stm32f10x_tim.o(i.TIM_BDTRConfig), (32 bytes).
    Removing stm32f10x_tim.o(i.TIM_BDTRStructInit), (18 bytes).
    Removing stm32f10x_tim.o(i.TIM_CCPreloadControl), (24 bytes).
    Removing stm32f10x_tim.o(i.TIM_CCxCmd), (30 bytes).
    Removing stm32f10x_tim.o(i.TIM_CCxNCmd), (30 bytes).
    Removing stm32f10x_tim.o(i.TIM_ClearFlag), (6 bytes).
    Removing stm32f10x_tim.o(i.TIM_ClearOC1Ref), (18 bytes).
    Removing stm32f10x_tim.o(i.TIM_ClearOC2Ref), (24 bytes).
    Removing stm32f10x_tim.o(i.TIM_ClearOC3Ref), (18 bytes).
    Removing stm32f10x_tim.o(i.TIM_ClearOC4Ref), (24 bytes).
    Removing stm32f10x_tim.o(i.TIM_CounterModeConfig), (18 bytes).
    Removing stm32f10x_tim.o(i.TIM_CtrlPWMOutputs), (30 bytes).
    Removing stm32f10x_tim.o(i.TIM_DMACmd), (18 bytes).
    Removing stm32f10x_tim.o(i.TIM_DMAConfig), (10 bytes).
    Removing stm32f10x_tim.o(i.TIM_DeInit), (488 bytes).
    Removing stm32f10x_tim.o(i.TIM_ETRClockMode1Config), (54 bytes).
    Removing stm32f10x_tim.o(i.TIM_ETRClockMode2Config), (32 bytes).
    Removing stm32f10x_tim.o(i.TIM_ETRConfig), (28 bytes).
    Removing stm32f10x_tim.o(i.TIM_EncoderInterfaceConfig), (66 bytes).
    Removing stm32f10x_tim.o(i.TIM_ForcedOC1Config), (18 bytes).
    Removing stm32f10x_tim.o(i.TIM_ForcedOC2Config), (26 bytes).
    Removing stm32f10x_tim.o(i.TIM_ForcedOC3Config), (18 bytes).
    Removing stm32f10x_tim.o(i.TIM_ForcedOC4Config), (26 bytes).
    Removing stm32f10x_tim.o(i.TIM_GenerateEvent), (4 bytes).
    Removing stm32f10x_tim.o(i.TIM_GetCapture1), (6 bytes).
    Removing stm32f10x_tim.o(i.TIM_GetCapture2), (6 bytes).
    Removing stm32f10x_tim.o(i.TIM_GetCapture3), (6 bytes).
    Removing stm32f10x_tim.o(i.TIM_GetCapture4), (8 bytes).
    Removing stm32f10x_tim.o(i.TIM_GetCounter), (6 bytes).
    Removing stm32f10x_tim.o(i.TIM_GetFlagStatus), (18 bytes).
    Removing stm32f10x_tim.o(i.TIM_GetPrescaler), (6 bytes).
    Removing stm32f10x_tim.o(i.TIM_ICInit), (172 bytes).
    Removing stm32f10x_tim.o(i.TIM_ICStructInit), (18 bytes).
    Removing stm32f10x_tim.o(i.TIM_ITRxExternalClockConfig), (24 bytes).
    Removing stm32f10x_tim.o(i.TIM_InternalClockConfig), (12 bytes).
    Removing stm32f10x_tim.o(i.TIM_OC1FastConfig), (18 bytes).
    Removing stm32f10x_tim.o(i.TIM_OC1Init), (152 bytes).
    Removing stm32f10x_tim.o(i.TIM_OC1NPolarityConfig), (18 bytes).
    Removing stm32f10x_tim.o(i.TIM_OC1PolarityConfig), (18 bytes).
    Removing stm32f10x_tim.o(i.TIM_OC1PreloadConfig), (18 bytes).
    Removing stm32f10x_tim.o(i.TIM_OC2FastConfig), (26 bytes).
    Removing stm32f10x_tim.o(i.TIM_OC2Init), (164 bytes).
    Removing stm32f10x_tim.o(i.TIM_OC2NPolarityConfig), (26 bytes).
    Removing stm32f10x_tim.o(i.TIM_OC2PolarityConfig), (26 bytes).
    Removing stm32f10x_tim.o(i.TIM_OC2PreloadConfig), (26 bytes).
    Removing stm32f10x_tim.o(i.TIM_OC3FastConfig), (18 bytes).
    Removing stm32f10x_tim.o(i.TIM_OC3Init), (160 bytes).
    Removing stm32f10x_tim.o(i.TIM_OC3NPolarityConfig), (26 bytes).
    Removing stm32f10x_tim.o(i.TIM_OC3PolarityConfig), (26 bytes).
    Removing stm32f10x_tim.o(i.TIM_OC3PreloadConfig), (18 bytes).
    Removing stm32f10x_tim.o(i.TIM_OC4FastConfig), (26 bytes).
    Removing stm32f10x_tim.o(i.TIM_OC4Init), (124 bytes).
    Removing stm32f10x_tim.o(i.TIM_OC4PolarityConfig), (26 bytes).
    Removing stm32f10x_tim.o(i.TIM_OC4PreloadConfig), (26 bytes).
    Removing stm32f10x_tim.o(i.TIM_OCStructInit), (20 bytes).
    Removing stm32f10x_tim.o(i.TIM_PWMIConfig), (124 bytes).
    Removing stm32f10x_tim.o(i.TIM_PrescalerConfig), (6 bytes).
    Removing stm32f10x_tim.o(i.TIM_SelectCCDMA), (24 bytes).
    Removing stm32f10x_tim.o(i.TIM_SelectCOM), (24 bytes).
    Removing stm32f10x_tim.o(i.TIM_SelectHallSensor), (24 bytes).
    Removing stm32f10x_tim.o(i.TIM_SelectInputTrigger), (18 bytes).
    Removing stm32f10x_tim.o(i.TIM_SelectMasterSlaveMode), (18 bytes).
    Removing stm32f10x_tim.o(i.TIM_SelectOCxM), (82 bytes).
    Removing stm32f10x_tim.o(i.TIM_SelectOnePulseMode), (18 bytes).
    Removing stm32f10x_tim.o(i.TIM_SelectOutputTrigger), (18 bytes).
    Removing stm32f10x_tim.o(i.TIM_SelectSlaveMode), (18 bytes).
    Removing stm32f10x_tim.o(i.TIM_SetAutoreload), (4 bytes).
    Removing stm32f10x_tim.o(i.TIM_SetClockDivision), (18 bytes).
    Removing stm32f10x_tim.o(i.TIM_SetCompare1), (4 bytes).
    Removing stm32f10x_tim.o(i.TIM_SetCompare2), (4 bytes).
    Removing stm32f10x_tim.o(i.TIM_SetCompare3), (4 bytes).
    Removing stm32f10x_tim.o(i.TIM_SetCompare4), (6 bytes).
    Removing stm32f10x_tim.o(i.TIM_SetIC1Prescaler), (18 bytes).
    Removing stm32f10x_tim.o(i.TIM_SetIC2Prescaler), (26 bytes).
    Removing stm32f10x_tim.o(i.TIM_SetIC3Prescaler), (18 bytes).
    Removing stm32f10x_tim.o(i.TIM_SetIC4Prescaler), (26 bytes).
    Removing stm32f10x_tim.o(i.TIM_TIxExternalClockConfig), (62 bytes).
    Removing stm32f10x_tim.o(i.TIM_TimeBaseStructInit), (18 bytes).
    Removing stm32f10x_tim.o(i.TIM_UpdateDisableConfig), (24 bytes).
    Removing stm32f10x_tim.o(i.TIM_UpdateRequestConfig), (24 bytes).
    Removing stm32f10x_rcc.o(i.RCC_ADCCLKConfig), (24 bytes).
    Removing stm32f10x_rcc.o(i.RCC_AdjustHSICalibrationValue), (24 bytes).
    Removing stm32f10x_rcc.o(i.RCC_BackupResetCmd), (12 bytes).
    Removing stm32f10x_rcc.o(i.RCC_ClearFlag), (20 bytes).
    Removing stm32f10x_rcc.o(i.RCC_ClearITPendingBit), (12 bytes).
    Removing stm32f10x_rcc.o(i.RCC_ClockSecuritySystemCmd), (12 bytes).
    Removing stm32f10x_rcc.o(i.RCC_DeInit), (76 bytes).
    Removing stm32f10x_rcc.o(i.RCC_GetFlagStatus), (60 bytes).
    Removing stm32f10x_rcc.o(i.RCC_GetITStatus), (24 bytes).
    Removing stm32f10x_rcc.o(i.RCC_GetSYSCLKSource), (16 bytes).
    Removing stm32f10x_rcc.o(i.RCC_HCLKConfig), (24 bytes).
    Removing stm32f10x_rcc.o(i.RCC_HSEConfig), (76 bytes).
    Removing stm32f10x_rcc.o(i.RCC_HSICmd), (12 bytes).
    Removing stm32f10x_rcc.o(i.RCC_ITConfig), (32 bytes).
    Removing stm32f10x_rcc.o(i.RCC_LSEConfig), (52 bytes).
    Removing stm32f10x_rcc.o(i.RCC_LSICmd), (12 bytes).
    Removing stm32f10x_rcc.o(i.RCC_MCOConfig), (12 bytes).
    Removing stm32f10x_rcc.o(i.RCC_PCLK1Config), (24 bytes).
    Removing stm32f10x_rcc.o(i.RCC_PCLK2Config), (24 bytes).
    Removing stm32f10x_rcc.o(i.RCC_PLLCmd), (12 bytes).
    Removing stm32f10x_rcc.o(i.RCC_PLLConfig), (28 bytes).
    Removing stm32f10x_rcc.o(i.RCC_RTCCLKCmd), (12 bytes).
    Removing stm32f10x_rcc.o(i.RCC_RTCCLKConfig), (16 bytes).
    Removing stm32f10x_rcc.o(i.RCC_SYSCLKConfig), (24 bytes).
    Removing stm32f10x_rcc.o(i.RCC_USBCLKConfig), (12 bytes).
    Removing stm32f10x_rcc.o(i.RCC_WaitForHSEStartUp), (56 bytes).
    Removing stm32f10x_dma.o(i.DMA_ClearFlag), (28 bytes).
    Removing stm32f10x_dma.o(i.DMA_ClearITPendingBit), (28 bytes).
    Removing stm32f10x_dma.o(i.DMA_GetFlagStatus), (44 bytes).
    Removing stm32f10x_dma.o(i.DMA_GetITStatus), (44 bytes).
    Removing stm32f10x_dma.o(i.DMA_ITConfig), (18 bytes).
    Removing stm32f10x_dma.o(i.DMA_StructInit), (26 bytes).
    Removing stm32f10x_pwr.o(i.PWR_BackupAccessCmd), (12 bytes).
    Removing stm32f10x_pwr.o(i.PWR_ClearFlag), (20 bytes).
    Removing stm32f10x_pwr.o(i.PWR_DeInit), (22 bytes).
    Removing stm32f10x_pwr.o(i.PWR_EnterSTANDBYMode), (52 bytes).
    Removing stm32f10x_pwr.o(i.PWR_GetFlagStatus), (24 bytes).
    Removing stm32f10x_pwr.o(i.PWR_PVDCmd), (12 bytes).
    Removing stm32f10x_pwr.o(i.PWR_PVDLevelConfig), (24 bytes).
    Removing stm32f10x_pwr.o(i.PWR_WakeUpPinCmd), (12 bytes).
    Removing stm32f10x_bkp.o(i.BKP_ClearFlag), (20 bytes).
    Removing stm32f10x_bkp.o(i.BKP_ClearITPendingBit), (20 bytes).
    Removing stm32f10x_bkp.o(i.BKP_DeInit), (16 bytes).
    Removing stm32f10x_bkp.o(i.BKP_GetFlagStatus), (12 bytes).
    Removing stm32f10x_bkp.o(i.BKP_GetITStatus), (12 bytes).
    Removing stm32f10x_bkp.o(i.BKP_ITConfig), (12 bytes).
    Removing stm32f10x_bkp.o(i.BKP_RTCOutputConfig), (28 bytes).
    Removing stm32f10x_bkp.o(i.BKP_ReadBackupRegister), (28 bytes).
    Removing stm32f10x_bkp.o(i.BKP_SetRTCCalibrationValue), (28 bytes).
    Removing stm32f10x_bkp.o(i.BKP_TamperPinCmd), (12 bytes).
    Removing stm32f10x_bkp.o(i.BKP_TamperPinLevelConfig), (12 bytes).
    Removing stm32f10x_bkp.o(i.BKP_WriteBackupRegister), (28 bytes).
    Removing stm32f10x_exti.o(i.EXTI_ClearFlag), (12 bytes).
    Removing stm32f10x_exti.o(i.EXTI_DeInit), (36 bytes).
    Removing stm32f10x_exti.o(i.EXTI_GenerateSWInterrupt), (16 bytes).
    Removing stm32f10x_exti.o(i.EXTI_GetFlagStatus), (24 bytes).
    Removing stm32f10x_exti.o(i.EXTI_StructInit), (16 bytes).
    Removing stm32f10x_iwdg.o(i.IWDG_Enable), (16 bytes).
    Removing stm32f10x_iwdg.o(i.IWDG_GetFlagStatus), (24 bytes).
    Removing stm32f10x_iwdg.o(i.IWDG_ReloadCounter), (16 bytes).
    Removing stm32f10x_iwdg.o(i.IWDG_SetPrescaler), (12 bytes).
    Removing stm32f10x_iwdg.o(i.IWDG_SetReload), (12 bytes).
    Removing stm32f10x_iwdg.o(i.IWDG_WriteAccessCmd), (12 bytes).
    Removing stm32f10x_wwdg.o(i.WWDG_DeInit), (22 bytes).
    Removing stm32f10x_wwdg.o(i.WWDG_Enable), (16 bytes).
    Removing stm32f10x_wwdg.o(i.WWDG_EnableIT), (12 bytes).
    Removing stm32f10x_wwdg.o(i.WWDG_GetFlagStatus), (12 bytes).
    Removing stm32f10x_wwdg.o(i.WWDG_SetPrescaler), (24 bytes).
    Removing stm32f10x_wwdg.o(i.WWDG_SetWindowValue), (40 bytes).
    Removing main.o(i.chk_task), (716 bytes).
    Removing main.o(.conststring), (67 bytes).
    Removing can_task.o(i.getCanMsg), (60 bytes).
    Removing uart_task.o(i.getuartsendstatus), (12 bytes).
    Removing uart_task.o(i.uartsendstart), (36 bytes).
    Removing can_queue.o(i.get_data_queue), (52 bytes).
    Removing can_queue.o(i.is_queue_Full), (24 bytes).
    Removing can_queue.o(i.is_sendqueue_Full), (24 bytes).
    Removing can_speed.o(i.can_obdii_resolve_speed), (44 bytes).
    Removing can_speed.o(i.can_send_speed), (28 bytes).
    Removing can_speed.o(i.obdii_requeset), (52 bytes).
    Removing cmd_queue.o(i.clean_cmd_queue), (8 bytes).
    Removing sleepwakeup.o(i.sys_sleep_mode), (38 bytes).
    Removing frameware.o(i.FRAMEWORK_RELEASE), (40 bytes).
    Removing frameware.o(i.SYSCLKConfig_STOP), (64 bytes).
    Removing frameware.o(i.setGPIOModeToAin), (180 bytes).
    Removing frameware.o(.data), (1 bytes).

309 unused section(s) (total 17724 bytes) removed from the image.

==============================================================================

Image Symbol Table

    Local Symbols

    Symbol Name                              Value     Ov Type        Size  Object(Section)

    ../clib/angel/boardlib.s                 0x00000000   Number         0  boardshut.o ABSOLUTE
    ../clib/angel/boardlib.s                 0x00000000   Number         0  boardinit2.o ABSOLUTE
    ../clib/angel/boardlib.s                 0x00000000   Number         0  boardinit1.o ABSOLUTE
    ../clib/angel/boardlib.s                 0x00000000   Number         0  boardinit3.o ABSOLUTE
    ../clib/angel/dczerorl2.s                0x00000000   Number         0  __dczerorl2.o ABSOLUTE
    ../clib/angel/handlers.s                 0x00000000   Number         0  __scatter_zi.o ABSOLUTE
    ../clib/angel/kernel.s                   0x00000000   Number         0  __rtentry.o ABSOLUTE
    ../clib/angel/kernel.s                   0x00000000   Number         0  rtexit2.o ABSOLUTE
    ../clib/angel/kernel.s                   0x00000000   Number         0  __rtentry4.o ABSOLUTE
    ../clib/angel/kernel.s                   0x00000000   Number         0  __rtentry2.o ABSOLUTE
    ../clib/angel/kernel.s                   0x00000000   Number         0  rtexit.o ABSOLUTE
    ../clib/angel/rt.s                       0x00000000   Number         0  rt_locale_intlibspace.o ABSOLUTE
    ../clib/angel/rt.s                       0x00000000   Number         0  rt_heap_descriptor_intlibspace.o ABSOLUTE
    ../clib/angel/rt.s                       0x00000000   Number         0  rt_heap_descriptor.o ABSOLUTE
    ../clib/angel/rt.s                       0x00000000   Number         0  rt_ctype_table.o ABSOLUTE
    ../clib/angel/rt.s                       0x00000000   Number         0  rt_raise.o ABSOLUTE
    ../clib/angel/rt.s                       0x00000000   Number         0  rt_locale.o ABSOLUTE
    ../clib/angel/scatter.s                  0x00000000   Number         0  __scatter.o ABSOLUTE
    ../clib/angel/startup.s                  0x00000000   Number         0  __main.o ABSOLUTE
    ../clib/angel/sys.s                      0x00000000   Number         0  use_no_semi_2.o ABSOLUTE
    ../clib/angel/sys.s                      0x00000000   Number         0  indicate_semi.o ABSOLUTE
    ../clib/angel/sys.s                      0x00000000   Number         0  sys_stackheap_outer.o ABSOLUTE
    ../clib/angel/sys.s                      0x00000000   Number         0  libspace.o ABSOLUTE
    ../clib/angel/sys.s                      0x00000000   Number         0  mutex_dummy.o ABSOLUTE
    ../clib/angel/sys.s                      0x00000000   Number         0  use_no_semi.o ABSOLUTE
    ../clib/angel/sysapp.c                   0x00000000   Number         0  sys_command.o ABSOLUTE
    ../clib/angel/sysapp.c                   0x00000000   Number         0  sys_wrch.o ABSOLUTE
    ../clib/armsys.c                         0x00000000   Number         0  _get_argv.o ABSOLUTE
    ../clib/armsys.c                         0x00000000   Number         0  argv_veneer.o ABSOLUTE
    ../clib/armsys.c                         0x00000000   Number         0  argv_veneer.o ABSOLUTE
    ../clib/armsys.c                         0x00000000   Number         0  no_argv.o ABSOLUTE
    ../clib/armsys.c                         0x00000000   Number         0  _get_argv_nomalloc.o ABSOLUTE
    ../clib/bigflt.c                         0x00000000   Number         0  bigflt0.o ABSOLUTE
    ../clib/btod.s                           0x00000000   Number         0  btod.o ABSOLUTE
    ../clib/heap1.c                          0x00000000   Number         0  h1_free_mt.o ABSOLUTE
    ../clib/heap1.c                          0x00000000   Number         0  h1_alloc_mt.o ABSOLUTE
    ../clib/heap1.c                          0x00000000   Number         0  h1_init_mt.o ABSOLUTE
    ../clib/heap1.c                          0x00000000   Number         0  h1_free.o ABSOLUTE
    ../clib/heap1.c                          0x00000000   Number         0  h1_init.o ABSOLUTE
    ../clib/heap1.c                          0x00000000   Number         0  h1_final.o ABSOLUTE
    ../clib/heap1.c                          0x00000000   Number         0  h1_alloc.o ABSOLUTE
    ../clib/heap1.c                          0x00000000   Number         0  h1_final_mt.o ABSOLUTE
    ../clib/heap1.c                          0x00000000   Number         0  h1_extend_mt.o ABSOLUTE
    ../clib/heap1.c                          0x00000000   Number         0  h1_extend.o ABSOLUTE
    ../clib/heap2.c                          0x00000000   Number         0  fdtree.o ABSOLUTE
    ../clib/heap2.c                          0x00000000   Number         0  heap2.o ABSOLUTE
    ../clib/heap2.c                          0x00000000   Number         0  heap2mt.o ABSOLUTE
    ../clib/heapalloc.c                      0x00000000   Number         0  heapstubs.o ABSOLUTE
    ../clib/heapalloc.c                      0x00000000   Number         0  malloc.o ABSOLUTE
    ../clib/heapalloc.c                      0x00000000   Number         0  term_alloc.o ABSOLUTE
    ../clib/heapalloc.c                      0x00000000   Number         0  init_alloc.o ABSOLUTE
    ../clib/heapalloc.c                      0x00000000   Number         0  free.o ABSOLUTE
    ../clib/heapalloc.c                      0x00000000   Number         0  hguard.o ABSOLUTE
    ../clib/heapalloc.c                      0x00000000   Number         0  hrguard.o ABSOLUTE
    ../clib/heapalloc.c                      0x00000000   Number         0  maybetermalloc1.o ABSOLUTE
    ../clib/heapalloc.c                      0x00000000   Number         0  maybetermalloc1.o ABSOLUTE
    ../clib/heapalloc.c                      0x00000000   Number         0  maybetermalloc2.o ABSOLUTE
    ../clib/heapalloc.c                      0x00000000   Number         0  maybetermalloc2.o ABSOLUTE
    ../clib/heapaux.c                        0x00000000   Number         0  heapauxa.o ABSOLUTE
    ../clib/heapaux.c                        0x00000000   Number         0  heapauxi.o ABSOLUTE
    ../clib/libinit.s                        0x00000000   Number         0  libinit.o ABSOLUTE
    ../clib/libinit.s                        0x00000000   Number         0  libshutdown.o ABSOLUTE
    ../clib/libinit.s                        0x00000000   Number         0  libshutdown2.o ABSOLUTE
    ../clib/libinit.s                        0x00000000   Number         0  libinit2.o ABSOLUTE
    ../clib/locale.c                         0x00000000   Number         0  _wcrtomb.o ABSOLUTE
    ../clib/locale.s                         0x00000000   Number         0  lc_numeric_c.o ABSOLUTE
    ../clib/locale.s                         0x00000000   Number         0  lc_ctype_c.o ABSOLUTE
    ../clib/longlong.s                       0x00000000   Number         0  lludiv10.o ABSOLUTE
    ../clib/memcpset.s                       0x00000000   Number         0  rt_memcpy_v6.o ABSOLUTE
    ../clib/memcpset.s                       0x00000000   Number         0  rt_memcpy_w.o ABSOLUTE
    ../clib/memcpset.s                       0x00000000   Number         0  rt_memclr_w.o ABSOLUTE
    ../clib/memcpset.s                       0x00000000   Number         0  strcmpv7m.o ABSOLUTE
    ../clib/memcpset.s                       0x00000000   Number         0  rt_memclr.o ABSOLUTE
    ../clib/misc.s                           0x00000000   Number         0  printf_stubs.o ABSOLUTE
    ../clib/printf.c                         0x00000000   Number         0  _printf_truncate.o ABSOLUTE
    ../clib/printf.c                         0x00000000   Number         0  c89vsprintf.o ABSOLUTE
    ../clib/printf.c                         0x00000000   Number         0  __2printf.o ABSOLUTE
    ../clib/printf.c                         0x00000000   Number         0  noretval__2printf.o ABSOLUTE
    ../clib/printf.c                         0x00000000   Number         0  __printf.o ABSOLUTE
    ../clib/printf.c                         0x00000000   Number         0  _printf_hex_ptr.o ABSOLUTE
    ../clib/printf.c                         0x00000000   Number         0  _printf_wchar.o ABSOLUTE
    ../clib/printf.c                         0x00000000   Number         0  __printf_nopercent.o ABSOLUTE
    ../clib/printf.c                         0x00000000   Number         0  _printf_pad.o ABSOLUTE
    ../clib/printf.c                         0x00000000   Number         0  _printf_fp_dec.o ABSOLUTE
    ../clib/printf.c                         0x00000000   Number         0  _printf_str.o ABSOLUTE
    ../clib/printf.c                         0x00000000   Number         0  _printf_dec.o ABSOLUTE
    ../clib/printf.c                         0x00000000   Number         0  _printf_hex_ll.o ABSOLUTE
    ../clib/printf.c                         0x00000000   Number         0  _printf_hex_int.o ABSOLUTE
    ../clib/printf.c                         0x00000000   Number         0  _printf_hex_int_ll.o ABSOLUTE
    ../clib/printf.c                         0x00000000   Number         0  _printf_hex_int_ptr.o ABSOLUTE
    ../clib/printf.c                         0x00000000   Number         0  _printf_hex_ll_ptr.o ABSOLUTE
    ../clib/printf.c                         0x00000000   Number         0  _printf_hex_int_ll_ptr.o ABSOLUTE
    ../clib/printf.c                         0x00000000   Number         0  __printf_flags.o ABSOLUTE
    ../clib/printf.c                         0x00000000   Number         0  __printf_ss.o ABSOLUTE
    ../clib/printf.c                         0x00000000   Number         0  __printf_flags_ss.o ABSOLUTE
    ../clib/printf.c                         0x00000000   Number         0  __printf_wp.o ABSOLUTE
    ../clib/printf.c                         0x00000000   Number         0  __printf_flags_wp.o ABSOLUTE
    ../clib/printf.c                         0x00000000   Number         0  __printf_ss_wp.o ABSOLUTE
    ../clib/printf.c                         0x00000000   Number         0  __printf_flags_ss_wp.o ABSOLUTE
    ../clib/printf.c                         0x00000000   Number         0  _printf_intcommon.o ABSOLUTE
    ../clib/printf.c                         0x00000000   Number         0  _printf_charcount.o ABSOLUTE
    ../clib/printf.c                         0x00000000   Number         0  _printf_char_common.o ABSOLUTE
    ../clib/printf.c                         0x00000000   Number         0  _sputc.o ABSOLUTE
    ../clib/printf.c                         0x00000000   Number         0  _printf_char.o ABSOLUTE
    ../clib/printf.c                         0x00000000   Number         0  _printf_char_file.o ABSOLUTE
    ../clib/printf.c                         0x00000000   Number         0  _printf_wctomb.o ABSOLUTE
    ../clib/printf.c                         0x00000000   Number         0  _printf_longlong_dec.o ABSOLUTE
    ../clib/printf.c                         0x00000000   Number         0  _printf_oct_ll.o ABSOLUTE
    ../clib/printf.c                         0x00000000   Number         0  _printf_oct_int_ll.o ABSOLUTE
    ../clib/printf.c                         0x00000000   Number         0  _printf_fp_infnan.o ABSOLUTE
    ../clib/printf.c                         0x00000000   Number         0  _printf_oct_int.o ABSOLUTE
    ../clib/printf_percent.s                 0x00000000   Number         0  _printf_s.o ABSOLUTE
    ../clib/printf_percent.s                 0x00000000   Number         0  _printf_x.o ABSOLUTE
    ../clib/printf_percent.s                 0x00000000   Number         0  _printf_d.o ABSOLUTE
    ../clib/printf_percent.s                 0x00000000   Number         0  _printf_percent.o ABSOLUTE
    ../clib/printf_percent.s                 0x00000000   Number         0  _printf_c.o ABSOLUTE
    ../clib/printf_percent.s                 0x00000000   Number         0  _printf_percent_end.o ABSOLUTE
    ../clib/printf_percent.s                 0x00000000   Number         0  _printf_e.o ABSOLUTE
    ../clib/printf_percent.s                 0x00000000   Number         0  _printf_lli.o ABSOLUTE
    ../clib/printf_percent.s                 0x00000000   Number         0  _printf_lld.o ABSOLUTE
    ../clib/printf_percent.s                 0x00000000   Number         0  _printf_llo.o ABSOLUTE
    ../clib/printf_percent.s                 0x00000000   Number         0  _printf_llx.o ABSOLUTE
    ../clib/printf_percent.s                 0x00000000   Number         0  _printf_g.o ABSOLUTE
    ../clib/printf_percent.s                 0x00000000   Number         0  _printf_llu.o ABSOLUTE
    ../clib/printf_percent.s                 0x00000000   Number         0  _printf_f.o ABSOLUTE
    ../clib/printf_percent.s                 0x00000000   Number         0  _printf_u.o ABSOLUTE
    ../clib/printf_percent.s                 0x00000000   Number         0  _printf_ls.o ABSOLUTE
    ../clib/printf_percent.s                 0x00000000   Number         0  _printf_lc.o ABSOLUTE
    ../clib/printf_percent.s                 0x00000000   Number         0  _printf_i.o ABSOLUTE
    ../clib/printf_percent.s                 0x00000000   Number         0  _printf_a.o ABSOLUTE
    ../clib/printf_percent.s                 0x00000000   Number         0  _printf_o.o ABSOLUTE
    ../clib/printf_percent.s                 0x00000000   Number         0  _printf_p.o ABSOLUTE
    ../clib/printf_percent.s                 0x00000000   Number         0  _printf_l.o ABSOLUTE
    ../clib/printf_percent.s                 0x00000000   Number         0  _printf_n.o ABSOLUTE
    ../clib/printf_percent.s                 0x00000000   Number         0  _printf_ll.o ABSOLUTE
    ../clib/signal.c                         0x00000000   Number         0  defsig_rtmem_inner.o ABSOLUTE
    ../clib/signal.c                         0x00000000   Number         0  defsig_other.o ABSOLUTE
    ../clib/signal.c                         0x00000000   Number         0  defsig_segv_inner.o ABSOLUTE
    ../clib/signal.c                         0x00000000   Number         0  __raise.o ABSOLUTE
    ../clib/signal.c                         0x00000000   Number         0  defsig_general.o ABSOLUTE
    ../clib/signal.c                         0x00000000   Number         0  defsig_exit.o ABSOLUTE
    ../clib/signal.c                         0x00000000   Number         0  defsig_abrt_inner.o ABSOLUTE
    ../clib/signal.c                         0x00000000   Number         0  defsig_cppl_inner.o ABSOLUTE
    ../clib/signal.c                         0x00000000   Number         0  defsig_fpe_inner.o ABSOLUTE
    ../clib/signal.c                         0x00000000   Number         0  defsig_rtred_inner.o ABSOLUTE
    ../clib/signal.c                         0x00000000   Number         0  defsig_stak_inner.o ABSOLUTE
    ../clib/signal.c                         0x00000000   Number         0  defsig_rtmem_outer.o ABSOLUTE
    ../clib/signal.c                         0x00000000   Number         0  defsig_pvfn_inner.o ABSOLUTE
    ../clib/signal.c                         0x00000000   Number         0  defsig_rtmem_formal.o ABSOLUTE
    ../clib/signal.s                         0x00000000   Number         0  defsig.o ABSOLUTE
    ../clib/stdio.c                          0x00000000   Number         0  ferror_locked.o ABSOLUTE
    ../clib/stdio.c                          0x00000000   Number         0  ferror.o ABSOLUTE
    ../clib/stdlib.c                         0x00000000   Number         0  exit.o ABSOLUTE
    ../clib/string.c                         0x00000000   Number         0  strlen.o ABSOLUTE
    ../fplib/fpinit.s                        0x00000000   Number         0  fpinit.o ABSOLUTE
    ../fplib/istatus.s                       0x00000000   Number         0  istatus.o ABSOLUTE
    ../fplib/printf1.s                       0x00000000   Number         0  printf1.o ABSOLUTE
    ../fplib/usenofp.s                       0x00000000   Number         0  usenofp.o ABSOLUTE
    ../mathlib/fpclassify.c                  0x00000000   Number         0  fpclassify.o ABSOLUTE
    ..\CMSIS\stm32f10x_it.c                  0x00000000   Number         0  stm32f10x_it.o ABSOLUTE
    ..\CMSIS\system_stm32f10x.c              0x00000000   Number         0  system_stm32f10x.o ABSOLUTE
    ..\CORE\core_cm3.c                       0x00000000   Number         0  core_cm3.o ABSOLUTE
    ..\CORE\startup_stm32f10x_md.s           0x00000000   Number         0  startup_stm32f10x_md.o ABSOLUTE
    ..\FWLIB\src\misc.c                      0x00000000   Number         0  misc.o ABSOLUTE
    ..\FWLIB\src\stm32f10x_bkp.c             0x00000000   Number         0  stm32f10x_bkp.o ABSOLUTE
    ..\FWLIB\src\stm32f10x_can.c             0x00000000   Number         0  stm32f10x_can.o ABSOLUTE
    ..\FWLIB\src\stm32f10x_dma.c             0x00000000   Number         0  stm32f10x_dma.o ABSOLUTE
    ..\FWLIB\src\stm32f10x_exti.c            0x00000000   Number         0  stm32f10x_exti.o ABSOLUTE
    ..\FWLIB\src\stm32f10x_gpio.c            0x00000000   Number         0  stm32f10x_gpio.o ABSOLUTE
    ..\FWLIB\src\stm32f10x_iwdg.c            0x00000000   Number         0  stm32f10x_iwdg.o ABSOLUTE
    ..\FWLIB\src\stm32f10x_pwr.c             0x00000000   Number         0  stm32f10x_pwr.o ABSOLUTE
    ..\FWLIB\src\stm32f10x_rcc.c             0x00000000   Number         0  stm32f10x_rcc.o ABSOLUTE
    ..\FWLIB\src\stm32f10x_tim.c             0x00000000   Number         0  stm32f10x_tim.o ABSOLUTE
    ..\FWLIB\src\stm32f10x_usart.c           0x00000000   Number         0  stm32f10x_usart.o ABSOLUTE
    ..\FWLIB\src\stm32f10x_wwdg.c            0x00000000   Number         0  stm32f10x_wwdg.o ABSOLUTE
    ..\HARDWARE\CAN\can.c                    0x00000000   Number         0  can.o ABSOLUTE
    ..\HARDWARE\KEY\keyAcc.c                 0x00000000   Number         0  keyacc.o ABSOLUTE
    ..\HARDWARE\LED\led.c                    0x00000000   Number         0  led.o ABSOLUTE
    ..\HARDWARE\UART\usart2.c                0x00000000   Number         0  usart2.o ABSOLUTE
    ..\HARDWARE\WWDG\wwdg.c                  0x00000000   Number         0  wwdg.o ABSOLUTE
    ..\SYSTEM\crc\crc8.c                     0x00000000   Number         0  crc8.o ABSOLUTE
    ..\SYSTEM\delay\delay.c                  0x00000000   Number         0  delay.o ABSOLUTE
    ..\SYSTEM\sys\sys.c                      0x00000000   Number         0  sys.o ABSOLUTE
    ..\SYSTEM\usart\usart.c                  0x00000000   Number         0  usart.o ABSOLUTE
    ..\UCOSII\CORE\os_core.c                 0x00000000   Number         0  os_core.o ABSOLUTE
    ..\UCOSII\CORE\os_flag.c                 0x00000000   Number         0  os_flag.o ABSOLUTE
    ..\UCOSII\CORE\os_mbox.c                 0x00000000   Number         0  os_mbox.o ABSOLUTE
    ..\UCOSII\CORE\os_mem.c                  0x00000000   Number         0  os_mem.o ABSOLUTE
    ..\UCOSII\CORE\os_mutex.c                0x00000000   Number         0  os_mutex.o ABSOLUTE
    ..\UCOSII\CORE\os_q.c                    0x00000000   Number         0  os_q.o ABSOLUTE
    ..\UCOSII\CORE\os_sem.c                  0x00000000   Number         0  os_sem.o ABSOLUTE
    ..\UCOSII\CORE\os_task.c                 0x00000000   Number         0  os_task.o ABSOLUTE
    ..\UCOSII\CORE\os_time.c                 0x00000000   Number         0  os_time.o ABSOLUTE
    ..\UCOSII\CORE\os_tmr.c                  0x00000000   Number         0  os_tmr.o ABSOLUTE
    ..\UCOSII\PORT\os_cpu_a.asm              0x00000000   Number         0  os_cpu_a.o ABSOLUTE
    ..\UCOSII\PORT\os_cpu_c.c                0x00000000   Number         0  os_cpu_c.o ABSOLUTE
    ..\USERLIB\Encode.c                      0x00000000   Number         0  encode.o ABSOLUTE
    ..\USERLIB\can_queue.c                   0x00000000   Number         0  can_queue.o ABSOLUTE
    ..\USERLIB\can_speed.c                   0x00000000   Number         0  can_speed.o ABSOLUTE
    ..\USERLIB\cmd_queue.c                   0x00000000   Number         0  cmd_queue.o ABSOLUTE
    ..\USERLIB\control.c                     0x00000000   Number         0  control.o ABSOLUTE
    ..\USERLIB\convert.c                     0x00000000   Number         0  convert.o ABSOLUTE
    ..\USERLIB\detect.c                      0x00000000   Number         0  detect.o ABSOLUTE
    ..\USERLIB\frameware.c                   0x00000000   Number         0  frameware.o ABSOLUTE
    ..\USERLIB\ringbuf.c                     0x00000000   Number         0  ringbuf.o ABSOLUTE
    ..\USERLIB\sleepwakeup.c                 0x00000000   Number         0  sleepwakeup.o ABSOLUTE
    ..\USER\can_task.c                       0x00000000   Number         0  can_task.o ABSOLUTE
    ..\USER\main.c                           0x00000000   Number         0  main.o ABSOLUTE
    ..\USER\schedule_task.c                  0x00000000   Number         0  schedule_task.o ABSOLUTE
    ..\USER\uart_task.c                      0x00000000   Number         0  uart_task.o ABSOLUTE
    ..\\CORE\\core_cm3.c                     0x00000000   Number         0  core_cm3.o ABSOLUTE
    ..\\SYSTEM\\sys\\sys.c                   0x00000000   Number         0  sys.o ABSOLUTE
    dc.s                                     0x00000000   Number         0  dc.o ABSOLUTE
    RESET                                    0x08000000   Section      236  startup_stm32f10x_md.o(RESET)
    !!!main                                  0x080000ec   Section        8  __main.o(!!!main)
    !!!scatter                               0x080000f4   Section       52  __scatter.o(!!!scatter)
    !!dczerorl2                              0x08000128   Section       90  __dczerorl2.o(!!dczerorl2)
    !!handler_zi                             0x08000184   Section       28  __scatter_zi.o(!!handler_zi)
    .ARM.Collect$$_printf_percent$$00000000  0x080001a0   Section        0  _printf_percent.o(.ARM.Collect$$_printf_percent$$00000000)
    .ARM.Collect$$_printf_percent$$00000009  0x080001a0   Section        6  _printf_d.o(.ARM.Collect$$_printf_percent$$00000009)
    .ARM.Collect$$_printf_percent$$0000000C  0x080001a6   Section        6  _printf_x.o(.ARM.Collect$$_printf_percent$$0000000C)
    .ARM.Collect$$_printf_percent$$00000014  0x080001ac   Section        6  _printf_s.o(.ARM.Collect$$_printf_percent$$00000014)
    .ARM.Collect$$_printf_percent$$00000017  0x080001b2   Section        4  _printf_percent_end.o(.ARM.Collect$$_printf_percent$$00000017)
    .ARM.Collect$$libinit$$00000000          0x080001b6   Section        2  libinit.o(.ARM.Collect$$libinit$$00000000)
    .ARM.Collect$$libinit$$00000002          0x080001b8   Section        0  libinit2.o(.ARM.Collect$$libinit$$00000002)
    .ARM.Collect$$libinit$$00000004          0x080001b8   Section        0  libinit2.o(.ARM.Collect$$libinit$$00000004)
    .ARM.Collect$$libinit$$0000000A          0x080001b8   Section        0  libinit2.o(.ARM.Collect$$libinit$$0000000A)
    .ARM.Collect$$libinit$$0000000C          0x080001b8   Section        0  libinit2.o(.ARM.Collect$$libinit$$0000000C)
    .ARM.Collect$$libinit$$0000000E          0x080001b8   Section        0  libinit2.o(.ARM.Collect$$libinit$$0000000E)
    .ARM.Collect$$libinit$$00000011          0x080001b8   Section        0  libinit2.o(.ARM.Collect$$libinit$$00000011)
    .ARM.Collect$$libinit$$00000013          0x080001b8   Section        0  libinit2.o(.ARM.Collect$$libinit$$00000013)
    .ARM.Collect$$libinit$$00000015          0x080001b8   Section        0  libinit2.o(.ARM.Collect$$libinit$$00000015)
    .ARM.Collect$$libinit$$00000017          0x080001b8   Section        0  libinit2.o(.ARM.Collect$$libinit$$00000017)
    .ARM.Collect$$libinit$$00000019          0x080001b8   Section        0  libinit2.o(.ARM.Collect$$libinit$$00000019)
    .ARM.Collect$$libinit$$0000001B          0x080001b8   Section        0  libinit2.o(.ARM.Collect$$libinit$$0000001B)
    .ARM.Collect$$libinit$$0000001D          0x080001b8   Section        0  libinit2.o(.ARM.Collect$$libinit$$0000001D)
    .ARM.Collect$$libinit$$0000001F          0x080001b8   Section        0  libinit2.o(.ARM.Collect$$libinit$$0000001F)
    .ARM.Collect$$libinit$$00000021          0x080001b8   Section        0  libinit2.o(.ARM.Collect$$libinit$$00000021)
    .ARM.Collect$$libinit$$00000023          0x080001b8   Section        0  libinit2.o(.ARM.Collect$$libinit$$00000023)
    .ARM.Collect$$libinit$$00000025          0x080001b8   Section        0  libinit2.o(.ARM.Collect$$libinit$$00000025)
    .ARM.Collect$$libinit$$0000002C          0x080001b8   Section        0  libinit2.o(.ARM.Collect$$libinit$$0000002C)
    .ARM.Collect$$libinit$$0000002E          0x080001b8   Section        0  libinit2.o(.ARM.Collect$$libinit$$0000002E)
    .ARM.Collect$$libinit$$00000030          0x080001b8   Section        0  libinit2.o(.ARM.Collect$$libinit$$00000030)
    .ARM.Collect$$libinit$$00000032          0x080001b8   Section        0  libinit2.o(.ARM.Collect$$libinit$$00000032)
    .ARM.Collect$$libinit$$00000033          0x080001b8   Section        2  libinit2.o(.ARM.Collect$$libinit$$00000033)
    .ARM.Collect$$libshutdown$$00000000      0x080001ba   Section        2  libshutdown.o(.ARM.Collect$$libshutdown$$00000000)
    .ARM.Collect$$libshutdown$$00000003      0x080001bc   Section        0  libshutdown2.o(.ARM.Collect$$libshutdown$$00000003)
    .ARM.Collect$$libshutdown$$00000006      0x080001bc   Section        0  libshutdown2.o(.ARM.Collect$$libshutdown$$00000006)
    .ARM.Collect$$libshutdown$$00000009      0x080001bc   Section        0  libshutdown2.o(.ARM.Collect$$libshutdown$$00000009)
    .ARM.Collect$$libshutdown$$0000000B      0x080001bc   Section        0  libshutdown2.o(.ARM.Collect$$libshutdown$$0000000B)
    .ARM.Collect$$libshutdown$$0000000E      0x080001bc   Section        0  libshutdown2.o(.ARM.Collect$$libshutdown$$0000000E)
    .ARM.Collect$$libshutdown$$0000000F      0x080001bc   Section        2  libshutdown2.o(.ARM.Collect$$libshutdown$$0000000F)
    .ARM.Collect$$rtentry$$00000000          0x080001be   Section        0  __rtentry.o(.ARM.Collect$$rtentry$$00000000)
    .ARM.Collect$$rtentry$$00000002          0x080001be   Section        0  __rtentry2.o(.ARM.Collect$$rtentry$$00000002)
    .ARM.Collect$$rtentry$$00000004          0x080001be   Section        6  __rtentry4.o(.ARM.Collect$$rtentry$$00000004)
    .ARM.Collect$$rtentry$$00000009          0x080001c4   Section        0  __rtentry2.o(.ARM.Collect$$rtentry$$00000009)
    .ARM.Collect$$rtentry$$0000000A          0x080001c4   Section        4  __rtentry2.o(.ARM.Collect$$rtentry$$0000000A)
    .ARM.Collect$$rtentry$$0000000C          0x080001c8   Section        0  __rtentry2.o(.ARM.Collect$$rtentry$$0000000C)
    .ARM.Collect$$rtentry$$0000000D          0x080001c8   Section        8  __rtentry2.o(.ARM.Collect$$rtentry$$0000000D)
    .ARM.Collect$$rtexit$$00000000           0x080001d0   Section        2  rtexit.o(.ARM.Collect$$rtexit$$00000000)
    .ARM.Collect$$rtexit$$00000002           0x080001d2   Section        0  rtexit2.o(.ARM.Collect$$rtexit$$00000002)
    .ARM.Collect$$rtexit$$00000003           0x080001d2   Section        4  rtexit2.o(.ARM.Collect$$rtexit$$00000003)
    .ARM.Collect$$rtexit$$00000004           0x080001d6   Section        6  rtexit2.o(.ARM.Collect$$rtexit$$00000004)
    .text                                    0x080001dc   Section       64  startup_stm32f10x_md.o(.text)
    .text                                    0x0800021c   Section      180  os_cpu_a.o(.text)
    .text                                    0x080002d0   Section        2  use_no_semi_2.o(.text)
    .text                                    0x080002d4   Section        0  __2printf.o(.text)
    .text                                    0x080002ec   Section        0  _printf_pad.o(.text)
    .text                                    0x0800033a   Section        0  _printf_str.o(.text)
    .text                                    0x0800038c   Section        0  _printf_dec.o(.text)
    .text                                    0x08000404   Section        0  _printf_hex_int_ll_ptr.o(.text)
    _printf_hex_common                       0x08000405   Thumb Code     0  _printf_hex_int_ll_ptr.o(.text)
    .text                                    0x08000498   Section        0  __printf_flags_ss_wp.o(.text)
    .text                                    0x08000620   Section      138  rt_memcpy_v6.o(.text)
    .text                                    0x080006aa   Section      100  rt_memcpy_w.o(.text)
    .text                                    0x0800070e   Section       68  rt_memclr.o(.text)
    .text                                    0x08000752   Section       78  rt_memclr_w.o(.text)
    .text                                    0x080007a0   Section        0  heapauxi.o(.text)
    .text                                    0x080007a6   Section        2  use_no_semi.o(.text)
    .text                                    0x080007a8   Section        0  _printf_intcommon.o(.text)
    .text                                    0x0800085c   Section        0  _printf_char_common.o(.text)
    _printf_input_char                       0x0800085d   Thumb Code    10  _printf_char_common.o(.text)
    .text                                    0x0800088c   Section        0  _printf_char.o(.text)
    .text                                    0x080008b8   Section        0  _printf_char_file.o(.text)
    .text                                    0x080008dc   Section        8  libspace.o(.text)
    .text                                    0x080008e4   Section        0  ferror.o(.text)
    .text                                    0x080008ec   Section       74  sys_stackheap_outer.o(.text)
    .text                                    0x08000936   Section        0  exit.o(.text)
    i.BusFault_Handler                       0x08000942   Section        0  stm32f10x_it.o(i.BusFault_Handler)
    i.CAN_DeInit                             0x08000948   Section        0  stm32f10x_can.o(i.CAN_DeInit)
    i.CAN_FILTERINIT                         0x08000980   Section        0  can.o(i.CAN_FILTERINIT)
    i.CAN_FilterInit                         0x08000a8c   Section        0  stm32f10x_can.o(i.CAN_FilterInit)
    i.CAN_GPIO_Config                        0x08000b94   Section        0  can.o(i.CAN_GPIO_Config)
    i.CAN_INIT                               0x08000be0   Section        0  can.o(i.CAN_INIT)
    i.CAN_ITConfig                           0x08000ca4   Section        0  stm32f10x_can.o(i.CAN_ITConfig)
    i.CAN_Init                               0x08000cb6   Section        0  stm32f10x_can.o(i.CAN_Init)
    i.CAN_NVIC_Configuration                 0x08000dca   Section        0  can.o(i.CAN_NVIC_Configuration)
    i.CAN_Receive                            0x08000df6   Section        0  stm32f10x_can.o(i.CAN_Receive)
    i.CAN_StructInit                         0x08000ee6   Section        0  stm32f10x_can.o(i.CAN_StructInit)
    i.CAN_TRANSMIT                           0x08000f08   Section        0  can.o(i.CAN_TRANSMIT)
    i.CAN_Transmit                           0x08000f84   Section        0  stm32f10x_can.o(i.CAN_Transmit)
    i.DMA_Cmd                                0x080010aa   Section        0  stm32f10x_dma.o(i.DMA_Cmd)
    i.DMA_DeInit                             0x080010c4   Section        0  stm32f10x_dma.o(i.DMA_DeInit)
    i.DMA_GetCurrDataCounter                 0x08001210   Section        0  stm32f10x_dma.o(i.DMA_GetCurrDataCounter)
    i.DMA_Init                               0x08001218   Section        0  stm32f10x_dma.o(i.DMA_Init)
    i.DMA_SetCurrDataCounter                 0x08001254   Section        0  stm32f10x_dma.o(i.DMA_SetCurrDataCounter)
    i.DebugMon_Handler                       0x08001258   Section        0  stm32f10x_it.o(i.DebugMon_Handler)
    i.EXTI15_10_IRQHandler                   0x0800125c   Section        0  frameware.o(i.EXTI15_10_IRQHandler)
    i.EXTI_ClearITPendingBit                 0x080012e0   Section        0  stm32f10x_exti.o(i.EXTI_ClearITPendingBit)
    i.EXTI_GetITStatus                       0x080012ec   Section        0  stm32f10x_exti.o(i.EXTI_GetITStatus)
    i.EXTI_Init                              0x08001314   Section        0  stm32f10x_exti.o(i.EXTI_Init)
    i.FRAMEWORK_INIT                         0x080013a8   Section        0  frameware.o(i.FRAMEWORK_INIT)
    i.GPIO_EXTILineConfig                    0x08001408   Section        0  stm32f10x_gpio.o(i.GPIO_EXTILineConfig)
    i.GPIO_Init                              0x08001448   Section        0  stm32f10x_gpio.o(i.GPIO_Init)
    i.GPIO_PinRemapConfig                    0x08001560   Section        0  stm32f10x_gpio.o(i.GPIO_PinRemapConfig)
    i.GPIO_ReadInputDataBit                  0x080015f0   Section        0  stm32f10x_gpio.o(i.GPIO_ReadInputDataBit)
    i.GPIO_SetBits                           0x08001602   Section        0  stm32f10x_gpio.o(i.GPIO_SetBits)
    i.HardFault_Handler                      0x08001606   Section        0  stm32f10x_it.o(i.HardFault_Handler)
    i.LED_Init                               0x0800160c   Section        0  led.o(i.LED_Init)
    i.MemManage_Handler                      0x08001690   Section        0  stm32f10x_it.o(i.MemManage_Handler)
    i.MsgCounter                             0x08001694   Section        0  encode.o(i.MsgCounter)
    MsgCounter                               0x08001695   Thumb Code    16  encode.o(i.MsgCounter)
    i.NMI_Handler                            0x080016a8   Section        0  stm32f10x_it.o(i.NMI_Handler)
    i.NVIC_Init                              0x080016ac   Section        0  misc.o(i.NVIC_Init)
    i.NVIC_PriorityGroupConfig               0x0800171c   Section        0  misc.o(i.NVIC_PriorityGroupConfig)
    i.NVIC_SetVectorTable                    0x08001730   Section        0  misc.o(i.NVIC_SetVectorTable)
    i.OSInit                                 0x08001744   Section        0  os_core.o(i.OSInit)
    i.OSInitHookBegin                        0x08001774   Section        0  os_cpu_c.o(i.OSInitHookBegin)
    i.OSInitHookEnd                          0x08001780   Section        0  os_cpu_c.o(i.OSInitHookEnd)
    i.OSIntEnter                             0x08001784   Section        0  os_core.o(i.OSIntEnter)
    i.OSIntExit                              0x080017a8   Section        0  os_core.o(i.OSIntExit)
    i.OSMutexCreate                          0x08001838   Section        0  os_mutex.o(i.OSMutexCreate)
    i.OSMutexPend                            0x080018cc   Section        0  os_mutex.o(i.OSMutexPend)
    i.OSMutexPost                            0x08001b04   Section        0  os_mutex.o(i.OSMutexPost)
    i.OSMutex_RdyAtPrio                      0x08001bcc   Section        0  os_mutex.o(i.OSMutex_RdyAtPrio)
    OSMutex_RdyAtPrio                        0x08001bcd   Thumb Code   114  os_mutex.o(i.OSMutex_RdyAtPrio)
    i.OSSchedLock                            0x08001c50   Section        0  os_core.o(i.OSSchedLock)
    i.OSSchedUnlock                          0x08001c90   Section        0  os_core.o(i.OSSchedUnlock)
    i.OSSemCreate                            0x08001cf0   Section        0  os_sem.o(i.OSSemCreate)
    i.OSSemPend                              0x08001d3c   Section        0  os_sem.o(i.OSSemPend)
    i.OSSemPost                              0x08001e28   Section        0  os_sem.o(i.OSSemPost)
    i.OSStart                                0x08001e80   Section        0  os_core.o(i.OSStart)
    i.OSTCBInitHook                          0x08001ec8   Section        0  os_cpu_c.o(i.OSTCBInitHook)
    i.OSTaskCreateExt                        0x08001ecc   Section        0  os_task.o(i.OSTaskCreateExt)
    i.OSTaskCreateHook                       0x08001f84   Section        0  os_cpu_c.o(i.OSTaskCreateHook)
    i.OSTaskIdleHook                         0x08001f86   Section        0  os_cpu_c.o(i.OSTaskIdleHook)
    i.OSTaskNameSet                          0x08001f88   Section        0  os_task.o(i.OSTaskNameSet)
    i.OSTaskResume                           0x08001ff8   Section        0  os_task.o(i.OSTaskResume)
    i.OSTaskStatHook                         0x080020a4   Section        0  os_cpu_c.o(i.OSTaskStatHook)
    i.OSTaskStkChk                           0x080020a8   Section        0  os_task.o(i.OSTaskStkChk)
    i.OSTaskStkInit                          0x08002134   Section        0  os_cpu_c.o(i.OSTaskStkInit)
    i.OSTaskSuspend                          0x080021d0   Section        0  os_task.o(i.OSTaskSuspend)
    i.OSTaskSwHook                           0x08002278   Section        0  os_cpu_c.o(i.OSTaskSwHook)
    i.OSTimeDly                              0x0800227c   Section        0  os_time.o(i.OSTimeDly)
    i.OSTimeDlyHMSM                          0x080022f4   Section        0  os_time.o(i.OSTimeDlyHMSM)
    i.OSTimeTick                             0x08002354   Section        0  os_core.o(i.OSTimeTick)
    i.OSTimeTickHook                         0x08002440   Section        0  os_cpu_c.o(i.OSTimeTickHook)
    i.OSTmrSignal                            0x08002464   Section        0  os_tmr.o(i.OSTmrSignal)
    i.OSTmr_Init                             0x08002478   Section        0  os_tmr.o(i.OSTmr_Init)
    i.OSTmr_InitTask                         0x08002530   Section        0  os_tmr.o(i.OSTmr_InitTask)
    OSTmr_InitTask                           0x08002531   Thumb Code    50  os_tmr.o(i.OSTmr_InitTask)
    i.OSTmr_Link                             0x08002580   Section        0  os_tmr.o(i.OSTmr_Link)
    OSTmr_Link                               0x08002581   Thumb Code   100  os_tmr.o(i.OSTmr_Link)
    i.OSTmr_Task                             0x080025ec   Section        0  os_tmr.o(i.OSTmr_Task)
    OSTmr_Task                               0x080025ed   Thumb Code   114  os_tmr.o(i.OSTmr_Task)
    i.OSTmr_Unlink                           0x0800266c   Section        0  os_tmr.o(i.OSTmr_Unlink)
    OSTmr_Unlink                             0x0800266d   Thumb Code    62  os_tmr.o(i.OSTmr_Unlink)
    i.OS_EventTaskRdy                        0x080026b0   Section        0  os_core.o(i.OS_EventTaskRdy)
    i.OS_EventTaskRemove                     0x08002734   Section        0  os_core.o(i.OS_EventTaskRemove)
    i.OS_EventTaskWait                       0x08002760   Section        0  os_core.o(i.OS_EventTaskWait)
    i.OS_EventWaitListInit                   0x080027dc   Section        0  os_core.o(i.OS_EventWaitListInit)
    i.OS_FlagInit                            0x080027f8   Section        0  os_flag.o(i.OS_FlagInit)
    i.OS_InitEventList                       0x08002850   Section        0  os_core.o(i.OS_InitEventList)
    OS_InitEventList                         0x08002851   Thumb Code    76  os_core.o(i.OS_InitEventList)
    i.OS_InitMisc                            0x080028a4   Section        0  os_core.o(i.OS_InitMisc)
    OS_InitMisc                              0x080028a5   Thumb Code    44  os_core.o(i.OS_InitMisc)
    i.OS_InitRdyList                         0x080028f8   Section        0  os_core.o(i.OS_InitRdyList)
    OS_InitRdyList                           0x080028f9   Thumb Code    44  os_core.o(i.OS_InitRdyList)
    i.OS_InitTCBList                         0x0800293c   Section        0  os_core.o(i.OS_InitTCBList)
    OS_InitTCBList                           0x0800293d   Thumb Code   106  os_core.o(i.OS_InitTCBList)
    i.OS_InitTaskIdle                        0x080029bc   Section        0  os_core.o(i.OS_InitTaskIdle)
    OS_InitTaskIdle                          0x080029bd   Thumb Code    50  os_core.o(i.OS_InitTaskIdle)
    i.OS_InitTaskStat                        0x08002a0c   Section        0  os_core.o(i.OS_InitTaskStat)
    OS_InitTaskStat                          0x08002a0d   Thumb Code    50  os_core.o(i.OS_InitTaskStat)
    i.OS_MemClr                              0x08002a5c   Section        0  os_core.o(i.OS_MemClr)
    i.OS_QInit                               0x08002a70   Section        0  os_q.o(i.OS_QInit)
    i.OS_Sched                               0x08002ac0   Section        0  os_core.o(i.OS_Sched)
    i.OS_SchedNew                            0x08002b34   Section        0  os_core.o(i.OS_SchedNew)
    OS_SchedNew                              0x08002b35   Thumb Code    26  os_core.o(i.OS_SchedNew)
    i.OS_TCBInit                             0x08002b60   Section        0  os_core.o(i.OS_TCBInit)
    i.OS_TaskIdle                            0x08002c94   Section        0  os_core.o(i.OS_TaskIdle)
    i.OS_TaskStat                            0x08002cbc   Section        0  os_core.o(i.OS_TaskStat)
    i.OS_TaskStatStkChk                      0x08002d44   Section        0  os_core.o(i.OS_TaskStatStkChk)
    i.OS_TaskStkClr                          0x08002d80   Section        0  os_task.o(i.OS_TaskStkClr)
    i.PWR_EnterSTOPMode                      0x08002d9c   Section        0  stm32f10x_pwr.o(i.PWR_EnterSTOPMode)
    i.RCC_AHBPeriphClockCmd                  0x08002ddc   Section        0  stm32f10x_rcc.o(i.RCC_AHBPeriphClockCmd)
    i.RCC_APB1PeriphClockCmd                 0x08002dfc   Section        0  stm32f10x_rcc.o(i.RCC_APB1PeriphClockCmd)
    i.RCC_APB1PeriphResetCmd                 0x08002e1c   Section        0  stm32f10x_rcc.o(i.RCC_APB1PeriphResetCmd)
    i.RCC_APB2PeriphClockCmd                 0x08002e3c   Section        0  stm32f10x_rcc.o(i.RCC_APB2PeriphClockCmd)
    i.RCC_APB2PeriphResetCmd                 0x08002e5c   Section        0  stm32f10x_rcc.o(i.RCC_APB2PeriphResetCmd)
    i.RCC_GetClocksFreq                      0x08002e7c   Section        0  stm32f10x_rcc.o(i.RCC_GetClocksFreq)
    i.SVC_Handler                            0x08002f50   Section        0  stm32f10x_it.o(i.SVC_Handler)
    i.SetSysClock                            0x08002f52   Section        0  system_stm32f10x.o(i.SetSysClock)
    SetSysClock                              0x08002f53   Thumb Code     8  system_stm32f10x.o(i.SetSysClock)
    i.SetSysClockTo72                        0x08002f5c   Section        0  system_stm32f10x.o(i.SetSysClockTo72)
    SetSysClockTo72                          0x08002f5d   Thumb Code   214  system_stm32f10x.o(i.SetSysClockTo72)
    i.SysTick_CLKSourceConfig                0x0800303c   Section        0  misc.o(i.SysTick_CLKSourceConfig)
    i.SysTick_Handler                        0x08003064   Section        0  delay.o(i.SysTick_Handler)
    i.SystemInit                             0x08003080   Section        0  system_stm32f10x.o(i.SystemInit)
    i.TIM4_IRQHandler                        0x080030e0   Section        0  usart2.o(i.TIM4_IRQHandler)
    i.TIM4_Init                              0x08003110   Section        0  usart2.o(i.TIM4_Init)
    i.TIM4_Set                               0x08003170   Section        0  usart2.o(i.TIM4_Set)
    i.TIM_ClearITPendingBit                  0x08003198   Section        0  stm32f10x_tim.o(i.TIM_ClearITPendingBit)
    i.TIM_Cmd                                0x0800319e   Section        0  stm32f10x_tim.o(i.TIM_Cmd)
    i.TIM_GetITStatus                        0x080031b6   Section        0  stm32f10x_tim.o(i.TIM_GetITStatus)
    i.TIM_ITConfig                           0x080031d8   Section        0  stm32f10x_tim.o(i.TIM_ITConfig)
    i.TIM_SetCounter                         0x080031ea   Section        0  stm32f10x_tim.o(i.TIM_SetCounter)
    i.TIM_TimeBaseInit                       0x080031f0   Section        0  stm32f10x_tim.o(i.TIM_TimeBaseInit)
    i.UART_DMA_Config                        0x08003294   Section        0  usart2.o(i.UART_DMA_Config)
    i.UART_DMA_Enable                        0x080032dc   Section        0  usart2.o(i.UART_DMA_Enable)
    i.UART_Init                              0x080032fc   Section        0  usart.o(i.UART_Init)
    i.UART_SEND_DATA                         0x080033a0   Section        0  usart2.o(i.UART_SEND_DATA)
    i.USART1_IRQHandler                      0x080033d0   Section        0  usart.o(i.USART1_IRQHandler)
    i.USART2_IRQHandler                      0x08003460   Section        0  usart2.o(i.USART2_IRQHandler)
    i.USART2_Init                            0x080034d8   Section        0  usart2.o(i.USART2_Init)
    i.USART_Cmd                              0x080035b0   Section        0  stm32f10x_usart.o(i.USART_Cmd)
    i.USART_DMACmd                           0x080035c8   Section        0  stm32f10x_usart.o(i.USART_DMACmd)
    i.USART_DeInit                           0x080035dc   Section        0  stm32f10x_usart.o(i.USART_DeInit)
    i.USART_GetITStatus                      0x08003678   Section        0  stm32f10x_usart.o(i.USART_GetITStatus)
    i.USART_ITConfig                         0x080036cc   Section        0  stm32f10x_usart.o(i.USART_ITConfig)
    i.USART_Init                             0x08003718   Section        0  stm32f10x_usart.o(i.USART_Init)
    i.USART_ReceiveData                      0x080037f0   Section        0  stm32f10x_usart.o(i.USART_ReceiveData)
    i.USB_LP_CAN1_RX0_IRQHandler             0x080037fc   Section        0  can.o(i.USB_LP_CAN1_RX0_IRQHandler)
    i.UsageFault_Handler                     0x08003828   Section        0  stm32f10x_it.o(i.UsageFault_Handler)
    i.WWDG_ClearFlag                         0x0800382c   Section        0  stm32f10x_wwdg.o(i.WWDG_ClearFlag)
    i.WWDG_IRQHandler                        0x08003838   Section        0  wwdg.o(i.WWDG_IRQHandler)
    i.WWDG_SetCounter                        0x0800385c   Section        0  stm32f10x_wwdg.o(i.WWDG_SetCounter)
    i._getcansendPacket                      0x0800386c   Section        0  can_task.o(i._getcansendPacket)
    _getcansendPacket                        0x0800386d   Thumb Code    50  can_task.o(i._getcansendPacket)
    i._is_digit                              0x080038a8   Section        0  __printf_wp.o(i._is_digit)
    i._sys_exit                              0x080038b6   Section        0  usart.o(i._sys_exit)
    i.addCanMsgAddr                          0x080038bc   Section        0  can_task.o(i.addCanMsgAddr)
    i.addcmdid2filter                        0x080038e4   Section        0  control.o(i.addcmdid2filter)
    i.addparseBufferAddr                     0x0800394c   Section        0  ringbuf.o(i.addparseBufferAddr)
    i.addringaddr                            0x08003966   Section        0  detect.o(i.addringaddr)
    i.addsys_errorcode                       0x08003984   Section        0  encode.o(i.addsys_errorcode)
    i.can_queue_init                         0x08003990   Section        0  can_queue.o(i.can_queue_init)
    i.can_resolve_speed                      0x080039e0   Section        0  can_speed.o(i.can_resolve_speed)
    i.can_sendqueue_init                     0x080039ec   Section        0  can_queue.o(i.can_sendqueue_init)
    i.can_set_brandrate                      0x08003a3c   Section        0  can_task.o(i.can_set_brandrate)
    i.can_set_filter                         0x08003a46   Section        0  can_task.o(i.can_set_filter)
    i.can_task_init                          0x08003a58   Section        0  can_task.o(i.can_task_init)
    i.canconvertuart                         0x08003b3c   Section        0  convert.o(i.canconvertuart)
    i.canidparse                             0x08003b94   Section        0  control.o(i.canidparse)
    i.canreadTask                            0x08003be0   Section        0  can_task.o(i.canreadTask)
    i.cansendTask                            0x08003cd0   Section        0  can_task.o(i.cansendTask)
    i.cleanBuffer                            0x08003d48   Section        0  ringbuf.o(i.cleanBuffer)
    i.clean_canqueue                         0x08003d56   Section        0  can_queue.o(i.clean_canqueue)
    i.clean_cansendqueue                     0x08003d5e   Section        0  can_queue.o(i.clean_cansendqueue)
    i.cmd_queue_init                         0x08003d68   Section        0  cmd_queue.o(i.cmd_queue_init)
    i.cmdid2filter                           0x08003dbc   Section        0  control.o(i.cmdid2filter)
    i.cmdsetparse                            0x08003e24   Section        0  control.o(i.cmdsetparse)
    i.cmdsetprocess                          0x08003f50   Section        0  control.o(i.cmdsetprocess)
    i.control                                0x0800402c   Section        0  control.o(i.control)
    i.controlInit                            0x0800407c   Section        0  control.o(i.controlInit)
    i.crc8                                   0x080040cc   Section        0  crc8.o(i.crc8)
    i.crc8_creator                           0x080040f0   Section        0  crc8.o(i.crc8_creator)
    i.crc8_populate_lsb                      0x0800410a   Section        0  crc8.o(i.crc8_populate_lsb)
    i.crc8_populate_msb                      0x08004146   Section        0  crc8.o(i.crc8_populate_msb)
    i.crcInit                                0x08004184   Section        0  crc8.o(i.crcInit)
    i.del_headdata_queue                     0x080041b4   Section        0  can_queue.o(i.del_headdata_queue)
    i.delay_init                             0x080041c0   Section        0  delay.o(i.delay_init)
    i.detectcrc8                             0x0800421c   Section        0  detect.o(i.detectcrc8)
    i.detectvaildMsgtype                     0x08004264   Section        0  detect.o(i.detectvaildMsgtype)
    i.detectvaildSync                        0x080042c4   Section        0  detect.o(i.detectvaildSync)
    i.displaystatus                          0x08004318   Section        0  schedule_task.o(i.displaystatus)
    i.entry_sleep_mode                       0x080043e8   Section        0  sleepwakeup.o(i.entry_sleep_mode)
    i.exti_Init                              0x0800442c   Section        0  frameware.o(i.exti_Init)
    i.exti_release                           0x080044c0   Section        0  frameware.o(i.exti_release)
    exti_release                             0x080044c1   Thumb Code    62  frameware.o(i.exti_release)
    i.flush                                  0x080044fe   Section        0  ringbuf.o(i.flush)
    i.fputc                                  0x08004538   Section        0  usart.o(i.fputc)
    i.getCanMsgAddr                          0x08004554   Section        0  can_task.o(i.getCanMsgAddr)
    i.getCanReadTaskStatus                   0x08004590   Section        0  can_task.o(i.getCanReadTaskStatus)
    i.getCanSendTaskStatus                   0x0800459c   Section        0  can_task.o(i.getCanSendTaskStatus)
    i.get_can_brandrate                      0x080045a8   Section        0  can_task.o(i.get_can_brandrate)
    i.get_can_speed                          0x080045b4   Section        0  can_speed.o(i.get_can_speed)
    i.get_canbus_status                      0x080045c0   Section        0  can_speed.o(i.get_canbus_status)
    i.get_cmd_queue                          0x080045cc   Section        0  cmd_queue.o(i.get_cmd_queue)
    i.get_headdata_queue                     0x080045fc   Section        0  can_queue.o(i.get_headdata_queue)
    i.get_send_packet                        0x0800461c   Section        0  encode.o(i.get_send_packet)
    i.get_send_queue                         0x08004646   Section        0  can_queue.o(i.get_send_queue)
    i.get_status_packet                      0x08004674   Section        0  encode.o(i.get_status_packet)
    i.getcontrolCmd                          0x080046cc   Section        0  control.o(i.getcontrolCmd)
    i.getdatafromBuffer                      0x08004708   Section        0  ringbuf.o(i.getdatafromBuffer)
    i.isresponse                             0x0800478c   Section        0  control.o(i.isresponse)
    i.keyAcc_Init                            0x08004798   Section        0  keyacc.o(i.keyAcc_Init)
    i.keyAcc_Scan                            0x080047c0   Section        0  keyacc.o(i.keyAcc_Scan)
    i.main                                   0x080047d4   Section        0  main.o(i.main)
    i.pause_can_task                         0x08004814   Section        0  can_task.o(i.pause_can_task)
    i.pause_read_can_task                    0x08004838   Section        0  can_task.o(i.pause_read_can_task)
    i.pause_read_uart_task                   0x080048c8   Section        0  uart_task.o(i.pause_read_uart_task)
    i.pause_send_can_task                    0x08004940   Section        0  can_task.o(i.pause_send_can_task)
    i.pause_send_uart_task                   0x080049d0   Section        0  uart_task.o(i.pause_send_uart_task)
    i.pause_uart_task                        0x08004a48   Section        0  uart_task.o(i.pause_uart_task)
    i.put_cmd_queue                          0x08004a6c   Section        0  cmd_queue.o(i.put_cmd_queue)
    i.put_data_queue                         0x08004abc   Section        0  can_queue.o(i.put_data_queue)
    i.put_send_queue                         0x08004b04   Section        0  can_queue.o(i.put_send_queue)
    i.putcansendPacket                       0x08004b58   Section        0  can_task.o(i.putcansendPacket)
    i.putcontrolCmd                          0x08004bb8   Section        0  control.o(i.putcontrolCmd)
    i.putdatatoBuffer                        0x08004be4   Section        0  ringbuf.o(i.putdatatoBuffer)
    i.resolve_can_message                    0x08004cb4   Section        0  can_task.o(i.resolve_can_message)
    i.responsefinish                         0x08004ce8   Section        0  control.o(i.responsefinish)
    i.ringbufferInit                         0x08004cf4   Section        0  ringbuf.o(i.ringbufferInit)
    i.schedule_indicate_task                 0x08004d3c   Section        0  schedule_task.o(i.schedule_indicate_task)
    i.schedule_task_init                     0x08004d84   Section        0  schedule_task.o(i.schedule_task_init)
    i.setGPIOModeToAllPins                   0x08004db8   Section        0  frameware.o(i.setGPIOModeToAllPins)
    i.set_canbus_status                      0x08004e30   Section        0  can_speed.o(i.set_canbus_status)
    i.set_system_status                      0x08004e3c   Section        0  schedule_task.o(i.set_system_status)
    i.start_can_task                         0x08004e48   Section        0  can_task.o(i.start_can_task)
    i.start_canread_task                     0x08004e64   Section        0  can_task.o(i.start_canread_task)
    i.start_cansend_task                     0x08004efc   Section        0  can_task.o(i.start_cansend_task)
    i.start_task                             0x08004f94   Section        0  main.o(i.start_task)
    i.start_uart_read_task                   0x08005004   Section        0  uart_task.o(i.start_uart_read_task)
    i.start_uart_send_task                   0x08005094   Section        0  uart_task.o(i.start_uart_send_task)
    i.start_uart_task                        0x0800511c   Section        0  uart_task.o(i.start_uart_task)
    i.startcansend                           0x08005138   Section        0  can_task.o(i.startcansend)
    i.switchoffclk                           0x08005174   Section        0  sleepwakeup.o(i.switchoffclk)
    switchoffclk                             0x08005175   Thumb Code    60  sleepwakeup.o(i.switchoffclk)
    i.sys_mode_entry                         0x080051b8   Section        0  sleepwakeup.o(i.sys_mode_entry)
    i.sys_stop_mode                          0x080051da   Section        0  sleepwakeup.o(i.sys_stop_mode)
    i.sys_switch                             0x080051f0   Section        0  frameware.o(i.sys_switch)
    i.uart_parse_task                        0x08005228   Section        0  uart_task.o(i.uart_parse_task)
    uart_parse_task                          0x08005229   Thumb Code   272  uart_task.o(i.uart_parse_task)
    i.uart_read_task                         0x08005354   Section        0  uart_task.o(i.uart_read_task)
    uart_read_task                           0x08005355   Thumb Code   124  uart_task.o(i.uart_read_task)
    i.uart_send_speed                        0x080053e4   Section        0  can_speed.o(i.uart_send_speed)
    i.uart_send_task                         0x08005438   Section        0  uart_task.o(i.uart_send_task)
    uart_send_task                           0x08005439   Thumb Code   140  uart_task.o(i.uart_send_task)
    i.uart_task_Init                         0x080054e8   Section        0  uart_task.o(i.uart_task_Init)
    i.uartconvertcan                         0x0800559c   Section        0  convert.o(i.uartconvertcan)
    .constdata                               0x080055dc   Section      256  os_core.o(.constdata)
    .constdata                               0x080056dc   Section        9  can.o(.constdata)
    __func__                                 0x080056dc   Data           9  can.o(.constdata)
    .constdata                               0x080056e5   Section       18  usart2.o(.constdata)
    __func__                                 0x080056e5   Data          18  usart2.o(.constdata)
    .constdata                               0x080056f7   Section       84  uart_task.o(.constdata)
    __func__                                 0x080056f7   Data          21  uart_task.o(.constdata)
    __func__                                 0x0800570c   Data          21  uart_task.o(.constdata)
    __func__                                 0x08005721   Data          21  uart_task.o(.constdata)
    __func__                                 0x08005736   Data          21  uart_task.o(.constdata)
    .constdata                               0x0800574b   Section       34  can_queue.o(.constdata)
    __func__                                 0x0800574b   Data          15  can_queue.o(.constdata)
    __func__                                 0x0800575a   Data          19  can_queue.o(.constdata)
    .constdata                               0x0800576d   Section       15  ringbuf.o(.constdata)
    __func__                                 0x0800576d   Data          15  ringbuf.o(.constdata)
    .constdata                               0x0800577c   Section       29  cmd_queue.o(.constdata)
    __func__                                 0x0800577c   Data          15  cmd_queue.o(.constdata)
    __func__                                 0x0800578b   Data          14  cmd_queue.o(.constdata)
    .constdata                               0x08005799   Section       17  sleepwakeup.o(.constdata)
    __func__                                 0x08005799   Data          17  sleepwakeup.o(.constdata)
    .constdata                               0x080057aa   Section       21  frameware.o(.constdata)
    __func__                                 0x080057aa   Data          21  frameware.o(.constdata)
    .constdata                               0x080057bf   Section       40  _printf_hex_int_ll_ptr.o(.constdata)
    uc_hextab                                0x080057bf   Data          20  _printf_hex_int_ll_ptr.o(.constdata)
    lc_hextab                                0x080057d3   Data          20  _printf_hex_int_ll_ptr.o(.constdata)
    .constdata                               0x080057e7   Section       17  __printf_flags_ss_wp.o(.constdata)
    maptable                                 0x080057e7   Data          17  __printf_flags_ss_wp.o(.constdata)
    .data                                    0x20000000   Section       20  system_stm32f10x.o(.data)
    .data                                    0x20000014   Section       92  os_core.o(.data)
    .data                                    0x20000070   Section        6  os_cpu_c.o(.data)
    OSTmrCtr                                 0x20000074   Data           2  os_cpu_c.o(.data)
    .data                                    0x20000076   Section        2  usart2.o(.data)
    .data                                    0x20000078   Section        4  delay.o(.data)
    fac_us                                   0x20000078   Data           1  delay.o(.data)
    fac_ms                                   0x2000007a   Data           2  delay.o(.data)
    .data                                    0x2000007c   Section        6  usart.o(.data)
    .data                                    0x20000082   Section       20  stm32f10x_rcc.o(.data)
    APBAHBPrescTable                         0x20000082   Data          16  stm32f10x_rcc.o(.data)
    ADCPrescTable                            0x20000092   Data           4  stm32f10x_rcc.o(.data)
    .data                                    0x20000096   Section        4  main.o(.data)
    .data                                    0x2000009c   Section       16  schedule_task.o(.data)
    ledcount                                 0x200000a6   Data           2  schedule_task.o(.data)
    led_on                                   0x200000a8   Data           1  schedule_task.o(.data)
    scale                                    0x200000a9   Data           1  schedule_task.o(.data)
    period                                   0x200000aa   Data           2  schedule_task.o(.data)
    .data                                    0x200000ac   Section       50  can_task.o(.data)
    g_CAN_Prescaler                          0x200000c4   Data           1  can_task.o(.data)
    g_sem_can                                0x200000c8   Data           4  can_task.o(.data)
    g_mutex_can                              0x200000cc   Data           4  can_task.o(.data)
    g_canread_status                         0x200000d0   Data           1  can_task.o(.data)
    g_cansend_status                         0x200000d1   Data           1  can_task.o(.data)
    g_sem_cansend                            0x200000d4   Data           4  can_task.o(.data)
    g_mutex_cansend                          0x200000d8   Data           4  can_task.o(.data)
    .data                                    0x200000e0   Section       45  uart_task.o(.data)
    g_sem_send                               0x200000e0   Data           4  uart_task.o(.data)
    g_mutex_read                             0x200000e4   Data           4  uart_task.o(.data)
    g_send_finished                          0x200000e8   Data           1  uart_task.o(.data)
    g_read_finished                          0x200000e9   Data           1  uart_task.o(.data)
    parsebuf                                 0x200000ea   Data          32  uart_task.o(.data)
    uart_read_status                         0x2000010a   Data           1  uart_task.o(.data)
    uart_parse_status                        0x2000010b   Data           1  uart_task.o(.data)
    uart_send_status                         0x2000010c   Data           1  uart_task.o(.data)
    .data                                    0x2000010e   Section       19  can_speed.o(.data)
    buf                                      0x2000010e   Data           8  can_speed.o(.data)
    request_buf                              0x20000116   Data           8  can_speed.o(.data)
    .data                                    0x20000122   Section        3  encode.o(.data)
    msgcounter                               0x20000122   Data           2  encode.o(.data)
    sys_status                               0x20000124   Data           1  encode.o(.data)
    .data                                    0x20000128   Section       80  control.o(.data)
    g_mutex_control                          0x20000128   Data           4  control.o(.data)
    g_isresponse                             0x2000012c   Data           1  control.o(.data)
    .bss                                     0x20000178   Section     3964  os_core.o(.bss)
    .bss                                     0x200010f8   Section      400  usart2.o(.bss)
    .bss                                     0x20001288   Section      200  usart.o(.bss)
    .bss                                     0x20001350   Section      256  crc8.o(.bss)
    crc_table                                0x20001350   Data         256  crc8.o(.bss)
    .bss                                     0x20001450   Section      896  main.o(.bss)
    .bss                                     0x200017d0   Section      256  schedule_task.o(.bss)
    .bss                                     0x200018d0   Section      812  can_task.o(.bss)
    .bss                                     0x20001bfc   Section     1036  uart_task.o(.bss)
    receivebuf                               0x20001f7c   Data         128  uart_task.o(.bss)
    ringInfo                                 0x20001ffc   Data          12  uart_task.o(.bss)
    .bss                                     0x20002008   Section      288  can_queue.o(.bss)
    MsgBuf                                   0x20002008   Data         160  can_queue.o(.bss)
    uartMsg                                  0x200020a8   Data         128  can_queue.o(.bss)
    .bss                                     0x20002128   Section      112  cmd_queue.o(.bss)
    .bss                                     0x20002198   Section      134  control.o(.bss)
    parsecmd                                 0x20002210   Data          14  control.o(.bss)
    .bss                                     0x20002220   Section       96  libspace.o(.bss)
    HEAP                                     0x20002280   Section      512  startup_stm32f10x_md.o(HEAP)
    Heap_Mem                                 0x20002280   Data         512  startup_stm32f10x_md.o(HEAP)
    STACK                                    0x20002480   Section     1024  startup_stm32f10x_md.o(STACK)
    Stack_Mem                                0x20002480   Data        1024  startup_stm32f10x_md.o(STACK)
    __initial_sp                             0x20002880   Data           0  startup_stm32f10x_md.o(STACK)

    Global Symbols

    Symbol Name                              Value     Ov Type        Size  Object(Section)

    BuildAttributes$$THM_ISAv4$P$D$K$B$S$PE$A:L22UL41UL21$X:L11$S22US41US21$IEEE1$IW$USESV6$~STKCKD$USESV7$~SHL$OTIME$ROPI$IEEEJ$EBA8$UX$STANDARDLIB$REQ8$PRES8$EABIv2 0x00000000   Number         0  anon$$obj.o ABSOLUTE
    __ARM_use_no_argv                        0x00000000   Number         0  main.o ABSOLUTE
    _printf_flags                            0x00000000   Number         0  printf_stubs.o ABSOLUTE
    _printf_return_value                     0x00000000   Number         0  printf_stubs.o ABSOLUTE
    _printf_sizespec                         0x00000000   Number         0  printf_stubs.o ABSOLUTE
    _printf_widthprec                        0x00000000   Number         0  printf_stubs.o ABSOLUTE
    __ARM_exceptions_init                     - Undefined Weak Reference
    __alloca_initialize                       - Undefined Weak Reference
    __arm_preinit_                            - Undefined Weak Reference
    __cpp_initialize__aeabi_                  - Undefined Weak Reference
    __cxa_finalize                            - Undefined Weak Reference
    __sigvec_lookup                           - Undefined Weak Reference
    __user_heap_extent                        - Undefined Weak Reference
    _atexit_init                              - Undefined Weak Reference
    _call_atexit_fns                          - Undefined Weak Reference
    _clock_init                               - Undefined Weak Reference
    _fp_trap_init                             - Undefined Weak Reference
    _fp_trap_shutdown                         - Undefined Weak Reference
    _get_lc_collate                           - Undefined Weak Reference
    _get_lc_monetary                          - Undefined Weak Reference
    _get_lc_time                              - Undefined Weak Reference
    _getenv_init                              - Undefined Weak Reference
    _handle_redirection                       - Undefined Weak Reference
    _initio                                   - Undefined Weak Reference
    _mutex_acquire                            - Undefined Weak Reference
    _mutex_free                               - Undefined Weak Reference
    _mutex_release                            - Undefined Weak Reference
    _printf_fp_hex                            - Undefined Weak Reference
    _printf_mbtowc                            - Undefined Weak Reference
    _printf_wc                                - Undefined Weak Reference
    _rand_init                                - Undefined Weak Reference
    _signal_finish                            - Undefined Weak Reference
    _signal_init                              - Undefined Weak Reference
    _terminateio                              - Undefined Weak Reference
    __Vectors_Size                           0x000000ec   Number         0  startup_stm32f10x_md.o ABSOLUTE
    __Vectors                                0x08000000   Data           4  startup_stm32f10x_md.o(RESET)
    __Vectors_End                            0x080000ec   Data           0  startup_stm32f10x_md.o(RESET)
    __main                                   0x080000ed   Thumb Code     8  __main.o(!!!main)
    __scatterload                            0x080000f5   Thumb Code     0  __scatter.o(!!!scatter)
    __scatterload_rt2                        0x080000f5   Thumb Code    44  __scatter.o(!!!scatter)
    __scatterload_rt2_thumb_only             0x080000f5   Thumb Code     0  __scatter.o(!!!scatter)
    __scatterload_null                       0x08000103   Thumb Code     0  __scatter.o(!!!scatter)
    __decompress                             0x08000129   Thumb Code    90  __dczerorl2.o(!!dczerorl2)
    __decompress1                            0x08000129   Thumb Code     0  __dczerorl2.o(!!dczerorl2)
    __scatterload_zeroinit                   0x08000185   Thumb Code    28  __scatter_zi.o(!!handler_zi)
    _printf_d                                0x080001a1   Thumb Code     0  _printf_d.o(.ARM.Collect$$_printf_percent$$00000009)
    _printf_percent                          0x080001a1   Thumb Code     0  _printf_percent.o(.ARM.Collect$$_printf_percent$$00000000)
    _printf_x                                0x080001a7   Thumb Code     0  _printf_x.o(.ARM.Collect$$_printf_percent$$0000000C)
    _printf_s                                0x080001ad   Thumb Code     0  _printf_s.o(.ARM.Collect$$_printf_percent$$00000014)
    _printf_percent_end                      0x080001b3   Thumb Code     0  _printf_percent_end.o(.ARM.Collect$$_printf_percent$$00000017)
    __rt_lib_init                            0x080001b7   Thumb Code     0  libinit.o(.ARM.Collect$$libinit$$00000000)
    __rt_lib_init_alloca_1                   0x080001b9   Thumb Code     0  libinit2.o(.ARM.Collect$$libinit$$0000002E)
    __rt_lib_init_argv_1                     0x080001b9   Thumb Code     0  libinit2.o(.ARM.Collect$$libinit$$0000002C)
    __rt_lib_init_atexit_1                   0x080001b9   Thumb Code     0  libinit2.o(.ARM.Collect$$libinit$$0000001B)
    __rt_lib_init_clock_1                    0x080001b9   Thumb Code     0  libinit2.o(.ARM.Collect$$libinit$$00000021)
    __rt_lib_init_cpp_1                      0x080001b9   Thumb Code     0  libinit2.o(.ARM.Collect$$libinit$$00000032)
    __rt_lib_init_exceptions_1               0x080001b9   Thumb Code     0  libinit2.o(.ARM.Collect$$libinit$$00000030)
    __rt_lib_init_fp_1                       0x080001b9   Thumb Code     0  libinit2.o(.ARM.Collect$$libinit$$00000002)
    __rt_lib_init_fp_trap_1                  0x080001b9   Thumb Code     0  libinit2.o(.ARM.Collect$$libinit$$0000001F)
    __rt_lib_init_getenv_1                   0x080001b9   Thumb Code     0  libinit2.o(.ARM.Collect$$libinit$$00000023)
    __rt_lib_init_heap_1                     0x080001b9   Thumb Code     0  libinit2.o(.ARM.Collect$$libinit$$0000000A)
    __rt_lib_init_lc_collate_1               0x080001b9   Thumb Code     0  libinit2.o(.ARM.Collect$$libinit$$00000011)
    __rt_lib_init_lc_ctype_1                 0x080001b9   Thumb Code     0  libinit2.o(.ARM.Collect$$libinit$$00000013)
    __rt_lib_init_lc_monetary_1              0x080001b9   Thumb Code     0  libinit2.o(.ARM.Collect$$libinit$$00000015)
    __rt_lib_init_lc_numeric_1               0x080001b9   Thumb Code     0  libinit2.o(.ARM.Collect$$libinit$$00000017)
    __rt_lib_init_lc_time_1                  0x080001b9   Thumb Code     0  libinit2.o(.ARM.Collect$$libinit$$00000019)
    __rt_lib_init_preinit_1                  0x080001b9   Thumb Code     0  libinit2.o(.ARM.Collect$$libinit$$00000004)
    __rt_lib_init_rand_1                     0x080001b9   Thumb Code     0  libinit2.o(.ARM.Collect$$libinit$$0000000E)
    __rt_lib_init_return                     0x080001b9   Thumb Code     0  libinit2.o(.ARM.Collect$$libinit$$00000033)
    __rt_lib_init_signal_1                   0x080001b9   Thumb Code     0  libinit2.o(.ARM.Collect$$libinit$$0000001D)
    __rt_lib_init_stdio_1                    0x080001b9   Thumb Code     0  libinit2.o(.ARM.Collect$$libinit$$00000025)
    __rt_lib_init_user_alloc_1               0x080001b9   Thumb Code     0  libinit2.o(.ARM.Collect$$libinit$$0000000C)
    __rt_lib_shutdown                        0x080001bb   Thumb Code     0  libshutdown.o(.ARM.Collect$$libshutdown$$00000000)
    __rt_lib_shutdown_fp_trap_1              0x080001bd   Thumb Code     0  libshutdown2.o(.ARM.Collect$$libshutdown$$00000006)
    __rt_lib_shutdown_heap_1                 0x080001bd   Thumb Code     0  libshutdown2.o(.ARM.Collect$$libshutdown$$0000000E)
    __rt_lib_shutdown_return                 0x080001bd   Thumb Code     0  libshutdown2.o(.ARM.Collect$$libshutdown$$0000000F)
    __rt_lib_shutdown_signal_1               0x080001bd   Thumb Code     0  libshutdown2.o(.ARM.Collect$$libshutdown$$00000009)
    __rt_lib_shutdown_stdio_1                0x080001bd   Thumb Code     0  libshutdown2.o(.ARM.Collect$$libshutdown$$00000003)
    __rt_lib_shutdown_user_alloc_1           0x080001bd   Thumb Code     0  libshutdown2.o(.ARM.Collect$$libshutdown$$0000000B)
    __rt_entry                               0x080001bf   Thumb Code     0  __rtentry.o(.ARM.Collect$$rtentry$$00000000)
    __rt_entry_presh_1                       0x080001bf   Thumb Code     0  __rtentry2.o(.ARM.Collect$$rtentry$$00000002)
    __rt_entry_sh                            0x080001bf   Thumb Code     0  __rtentry4.o(.ARM.Collect$$rtentry$$00000004)
    __rt_entry_li                            0x080001c5   Thumb Code     0  __rtentry2.o(.ARM.Collect$$rtentry$$0000000A)
    __rt_entry_postsh_1                      0x080001c5   Thumb Code     0  __rtentry2.o(.ARM.Collect$$rtentry$$00000009)
    __rt_entry_main                          0x080001c9   Thumb Code     0  __rtentry2.o(.ARM.Collect$$rtentry$$0000000D)
    __rt_entry_postli_1                      0x080001c9   Thumb Code     0  __rtentry2.o(.ARM.Collect$$rtentry$$0000000C)
    __rt_exit                                0x080001d1   Thumb Code     0  rtexit.o(.ARM.Collect$$rtexit$$00000000)
    __rt_exit_ls                             0x080001d3   Thumb Code     0  rtexit2.o(.ARM.Collect$$rtexit$$00000003)
    __rt_exit_prels_1                        0x080001d3   Thumb Code     0  rtexit2.o(.ARM.Collect$$rtexit$$00000002)
    __rt_exit_exit                           0x080001d7   Thumb Code     0  rtexit2.o(.ARM.Collect$$rtexit$$00000004)
    Reset_Handler                            0x080001dd   Thumb Code     8  startup_stm32f10x_md.o(.text)
    ADC1_2_IRQHandler                        0x080001f7   Thumb Code     0  startup_stm32f10x_md.o(.text)
    CAN1_RX1_IRQHandler                      0x080001f7   Thumb Code     0  startup_stm32f10x_md.o(.text)
    CAN1_SCE_IRQHandler                      0x080001f7   Thumb Code     0  startup_stm32f10x_md.o(.text)
    DMA1_Channel1_IRQHandler                 0x080001f7   Thumb Code     0  startup_stm32f10x_md.o(.text)
    DMA1_Channel2_IRQHandler                 0x080001f7   Thumb Code     0  startup_stm32f10x_md.o(.text)
    DMA1_Channel3_IRQHandler                 0x080001f7   Thumb Code     0  startup_stm32f10x_md.o(.text)
    DMA1_Channel4_IRQHandler                 0x080001f7   Thumb Code     0  startup_stm32f10x_md.o(.text)
    DMA1_Channel5_IRQHandler                 0x080001f7   Thumb Code     0  startup_stm32f10x_md.o(.text)
    DMA1_Channel6_IRQHandler                 0x080001f7   Thumb Code     0  startup_stm32f10x_md.o(.text)
    DMA1_Channel7_IRQHandler                 0x080001f7   Thumb Code     0  startup_stm32f10x_md.o(.text)
    EXTI0_IRQHandler                         0x080001f7   Thumb Code     0  startup_stm32f10x_md.o(.text)
    EXTI1_IRQHandler                         0x080001f7   Thumb Code     0  startup_stm32f10x_md.o(.text)
    EXTI2_IRQHandler                         0x080001f7   Thumb Code     0  startup_stm32f10x_md.o(.text)
    EXTI3_IRQHandler                         0x080001f7   Thumb Code     0  startup_stm32f10x_md.o(.text)
    EXTI4_IRQHandler                         0x080001f7   Thumb Code     0  startup_stm32f10x_md.o(.text)
    EXTI9_5_IRQHandler                       0x080001f7   Thumb Code     0  startup_stm32f10x_md.o(.text)
    FLASH_IRQHandler                         0x080001f7   Thumb Code     0  startup_stm32f10x_md.o(.text)
    I2C1_ER_IRQHandler                       0x080001f7   Thumb Code     0  startup_stm32f10x_md.o(.text)
    I2C1_EV_IRQHandler                       0x080001f7   Thumb Code     0  startup_stm32f10x_md.o(.text)
    I2C2_ER_IRQHandler                       0x080001f7   Thumb Code     0  startup_stm32f10x_md.o(.text)
    I2C2_EV_IRQHandler                       0x080001f7   Thumb Code     0  startup_stm32f10x_md.o(.text)
    PVD_IRQHandler                           0x080001f7   Thumb Code     0  startup_stm32f10x_md.o(.text)
    RCC_IRQHandler                           0x080001f7   Thumb Code     0  startup_stm32f10x_md.o(.text)
    RTCAlarm_IRQHandler                      0x080001f7   Thumb Code     0  startup_stm32f10x_md.o(.text)
    RTC_IRQHandler                           0x080001f7   Thumb Code     0  startup_stm32f10x_md.o(.text)
    SPI1_IRQHandler                          0x080001f7   Thumb Code     0  startup_stm32f10x_md.o(.text)
    SPI2_IRQHandler                          0x080001f7   Thumb Code     0  startup_stm32f10x_md.o(.text)
    TAMPER_IRQHandler                        0x080001f7   Thumb Code     0  startup_stm32f10x_md.o(.text)
    TIM1_BRK_IRQHandler                      0x080001f7   Thumb Code     0  startup_stm32f10x_md.o(.text)
    TIM1_CC_IRQHandler                       0x080001f7   Thumb Code     0  startup_stm32f10x_md.o(.text)
    TIM1_TRG_COM_IRQHandler                  0x080001f7   Thumb Code     0  startup_stm32f10x_md.o(.text)
    TIM1_UP_IRQHandler                       0x080001f7   Thumb Code     0  startup_stm32f10x_md.o(.text)
    TIM2_IRQHandler                          0x080001f7   Thumb Code     0  startup_stm32f10x_md.o(.text)
    TIM3_IRQHandler                          0x080001f7   Thumb Code     0  startup_stm32f10x_md.o(.text)
    USART3_IRQHandler                        0x080001f7   Thumb Code     0  startup_stm32f10x_md.o(.text)
    USBWakeUp_IRQHandler                     0x080001f7   Thumb Code     0  startup_stm32f10x_md.o(.text)
    USB_HP_CAN1_TX_IRQHandler                0x080001f7   Thumb Code     0  startup_stm32f10x_md.o(.text)
    __user_initial_stackheap                 0x080001f9   Thumb Code     0  startup_stm32f10x_md.o(.text)
    OS_CPU_SR_Save                           0x0800021d   Thumb Code     0  os_cpu_a.o(.text)
    OS_CPU_SR_Restore                        0x08000225   Thumb Code     0  os_cpu_a.o(.text)
    OSStartHighRdy                           0x0800022b   Thumb Code     0  os_cpu_a.o(.text)
    OSCtxSw                                  0x0800024d   Thumb Code     0  os_cpu_a.o(.text)
    OSIntCtxSw                               0x0800025b   Thumb Code     0  os_cpu_a.o(.text)
    PendSV_Handler                           0x0800026b   Thumb Code     0  os_cpu_a.o(.text)
    __use_no_semihosting                     0x080002d1   Thumb Code     2  use_no_semi_2.o(.text)
    __2printf                                0x080002d5   Thumb Code    20  __2printf.o(.text)
    _printf_pre_padding                      0x080002ed   Thumb Code    44  _printf_pad.o(.text)
    _printf_post_padding                     0x08000319   Thumb Code    34  _printf_pad.o(.text)
    _printf_str                              0x0800033b   Thumb Code    82  _printf_str.o(.text)
    _printf_int_dec                          0x0800038d   Thumb Code   104  _printf_dec.o(.text)
    _printf_longlong_hex                     0x08000405   Thumb Code    86  _printf_hex_int_ll_ptr.o(.text)
    _printf_int_hex                          0x0800045b   Thumb Code    28  _printf_hex_int_ll_ptr.o(.text)
    _printf_ll_hex                           0x08000477   Thumb Code    12  _printf_hex_int_ll_ptr.o(.text)
    _printf_hex_ptr                          0x08000483   Thumb Code    18  _printf_hex_int_ll_ptr.o(.text)
    __printf                                 0x08000499   Thumb Code   388  __printf_flags_ss_wp.o(.text)
    __aeabi_memcpy                           0x08000621   Thumb Code     0  rt_memcpy_v6.o(.text)
    __rt_memcpy                              0x08000621   Thumb Code   138  rt_memcpy_v6.o(.text)
    _memcpy_lastbytes                        0x08000687   Thumb Code     0  rt_memcpy_v6.o(.text)
    __aeabi_memcpy4                          0x080006ab   Thumb Code     0  rt_memcpy_w.o(.text)
    __aeabi_memcpy8                          0x080006ab   Thumb Code     0  rt_memcpy_w.o(.text)
    __rt_memcpy_w                            0x080006ab   Thumb Code   100  rt_memcpy_w.o(.text)
    _memcpy_lastbytes_aligned                0x080006f3   Thumb Code     0  rt_memcpy_w.o(.text)
    __aeabi_memclr                           0x0800070f   Thumb Code     0  rt_memclr.o(.text)
    __rt_memclr                              0x0800070f   Thumb Code    68  rt_memclr.o(.text)
    _memset                                  0x08000713   Thumb Code     0  rt_memclr.o(.text)
    __aeabi_memclr4                          0x08000753   Thumb Code     0  rt_memclr_w.o(.text)
    __aeabi_memclr8                          0x08000753   Thumb Code     0  rt_memclr_w.o(.text)
    __rt_memclr_w                            0x08000753   Thumb Code    78  rt_memclr_w.o(.text)
    _memset_w                                0x08000757   Thumb Code     0  rt_memclr_w.o(.text)
    __use_two_region_memory                  0x080007a1   Thumb Code     2  heapauxi.o(.text)
    __rt_heap_escrow                         0x080007a3   Thumb Code     2  heapauxi.o(.text)
    __rt_heap_expand                         0x080007a5   Thumb Code     2  heapauxi.o(.text)
    __I$use$semihosting                      0x080007a7   Thumb Code     0  use_no_semi.o(.text)
    __use_no_semihosting_swi                 0x080007a7   Thumb Code     2  use_no_semi.o(.text)
    _printf_int_common                       0x080007a9   Thumb Code   178  _printf_intcommon.o(.text)
    _printf_char_common                      0x08000867   Thumb Code    32  _printf_char_common.o(.text)
    _printf_cs_common                        0x0800088d   Thumb Code    20  _printf_char.o(.text)
    _printf_char                             0x080008a1   Thumb Code    16  _printf_char.o(.text)
    _printf_string                           0x080008b1   Thumb Code     8  _printf_char.o(.text)
    _printf_char_file                        0x080008b9   Thumb Code    32  _printf_char_file.o(.text)
    __user_libspace                          0x080008dd   Thumb Code     8  libspace.o(.text)
    __user_perproc_libspace                  0x080008dd   Thumb Code     0  libspace.o(.text)
    __user_perthread_libspace                0x080008dd   Thumb Code     0  libspace.o(.text)
    ferror                                   0x080008e5   Thumb Code     8  ferror.o(.text)
    __user_setup_stackheap                   0x080008ed   Thumb Code    74  sys_stackheap_outer.o(.text)
    exit                                     0x08000937   Thumb Code    12  exit.o(.text)
    BusFault_Handler                         0x08000943   Thumb Code     4  stm32f10x_it.o(i.BusFault_Handler)
    CAN_DeInit                               0x08000949   Thumb Code    50  stm32f10x_can.o(i.CAN_DeInit)
    CAN_FILTERINIT                           0x08000981   Thumb Code   208  can.o(i.CAN_FILTERINIT)
    CAN_FilterInit                           0x08000a8d   Thumb Code   258  stm32f10x_can.o(i.CAN_FilterInit)
    CAN_GPIO_Config                          0x08000b95   Thumb Code    70  can.o(i.CAN_GPIO_Config)
    CAN_INIT                                 0x08000be1   Thumb Code   128  can.o(i.CAN_INIT)
    CAN_ITConfig                             0x08000ca5   Thumb Code    18  stm32f10x_can.o(i.CAN_ITConfig)
    CAN_Init                                 0x08000cb7   Thumb Code   276  stm32f10x_can.o(i.CAN_Init)
    CAN_NVIC_Configuration                   0x08000dcb   Thumb Code    44  can.o(i.CAN_NVIC_Configuration)
    CAN_Receive                              0x08000df7   Thumb Code   240  stm32f10x_can.o(i.CAN_Receive)
    CAN_StructInit                           0x08000ee7   Thumb Code    32  stm32f10x_can.o(i.CAN_StructInit)
    CAN_TRANSMIT                             0x08000f09   Thumb Code   118  can.o(i.CAN_TRANSMIT)
    CAN_Transmit                             0x08000f85   Thumb Code   294  stm32f10x_can.o(i.CAN_Transmit)
    DMA_Cmd                                  0x080010ab   Thumb Code    24  stm32f10x_dma.o(i.DMA_Cmd)
    DMA_DeInit                               0x080010c5   Thumb Code   324  stm32f10x_dma.o(i.DMA_DeInit)
    DMA_GetCurrDataCounter                   0x08001211   Thumb Code     8  stm32f10x_dma.o(i.DMA_GetCurrDataCounter)
    DMA_Init                                 0x08001219   Thumb Code    60  stm32f10x_dma.o(i.DMA_Init)
    DMA_SetCurrDataCounter                   0x08001255   Thumb Code     4  stm32f10x_dma.o(i.DMA_SetCurrDataCounter)
    DebugMon_Handler                         0x08001259   Thumb Code     2  stm32f10x_it.o(i.DebugMon_Handler)
    EXTI15_10_IRQHandler                     0x0800125d   Thumb Code    82  frameware.o(i.EXTI15_10_IRQHandler)
    EXTI_ClearITPendingBit                   0x080012e1   Thumb Code     6  stm32f10x_exti.o(i.EXTI_ClearITPendingBit)
    EXTI_GetITStatus                         0x080012ed   Thumb Code    34  stm32f10x_exti.o(i.EXTI_GetITStatus)
    EXTI_Init                                0x08001315   Thumb Code   142  stm32f10x_exti.o(i.EXTI_Init)
    FRAMEWORK_INIT                           0x080013a9   Thumb Code    94  frameware.o(i.FRAMEWORK_INIT)
    GPIO_EXTILineConfig                      0x08001409   Thumb Code    60  stm32f10x_gpio.o(i.GPIO_EXTILineConfig)
    GPIO_Init                                0x08001449   Thumb Code   278  stm32f10x_gpio.o(i.GPIO_Init)
    GPIO_PinRemapConfig                      0x08001561   Thumb Code   138  stm32f10x_gpio.o(i.GPIO_PinRemapConfig)
    GPIO_ReadInputDataBit                    0x080015f1   Thumb Code    18  stm32f10x_gpio.o(i.GPIO_ReadInputDataBit)
    GPIO_SetBits                             0x08001603   Thumb Code     4  stm32f10x_gpio.o(i.GPIO_SetBits)
    HardFault_Handler                        0x08001607   Thumb Code     4  stm32f10x_it.o(i.HardFault_Handler)
    LED_Init                                 0x0800160d   Thumb Code   118  led.o(i.LED_Init)
    MemManage_Handler                        0x08001691   Thumb Code     4  stm32f10x_it.o(i.MemManage_Handler)
    NMI_Handler                              0x080016a9   Thumb Code     2  stm32f10x_it.o(i.NMI_Handler)
    NVIC_Init                                0x080016ad   Thumb Code   100  misc.o(i.NVIC_Init)
    NVIC_PriorityGroupConfig                 0x0800171d   Thumb Code    10  misc.o(i.NVIC_PriorityGroupConfig)
    NVIC_SetVectorTable                      0x08001731   Thumb Code    12  misc.o(i.NVIC_SetVectorTable)
    OSInit                                   0x08001745   Thumb Code    48  os_core.o(i.OSInit)
    OSInitHookBegin                          0x08001775   Thumb Code     8  os_cpu_c.o(i.OSInitHookBegin)
    OSInitHookEnd                            0x08001781   Thumb Code     2  os_cpu_c.o(i.OSInitHookEnd)
    OSIntEnter                               0x08001785   Thumb Code    28  os_core.o(i.OSIntEnter)
    OSIntExit                                0x080017a9   Thumb Code   112  os_core.o(i.OSIntExit)
    OSMutexCreate                            0x08001839   Thumb Code   134  os_mutex.o(i.OSMutexCreate)
    OSMutexPend                              0x080018cd   Thumb Code   542  os_mutex.o(i.OSMutexPend)
    OSMutexPost                              0x08001b05   Thumb Code   186  os_mutex.o(i.OSMutexPost)
    OSSchedLock                              0x08001c51   Thumb Code    50  os_core.o(i.OSSchedLock)
    OSSchedUnlock                            0x08001c91   Thumb Code    82  os_core.o(i.OSSchedUnlock)
    OSSemCreate                              0x08001cf1   Thumb Code    68  os_sem.o(i.OSSemCreate)
    OSSemPend                                0x08001d3d   Thumb Code   222  os_sem.o(i.OSSemPend)
    OSSemPost                                0x08001e29   Thumb Code    88  os_sem.o(i.OSSemPost)
    OSStart                                  0x08001e81   Thumb Code    48  os_core.o(i.OSStart)
    OSTCBInitHook                            0x08001ec9   Thumb Code     2  os_cpu_c.o(i.OSTCBInitHook)
    OSTaskCreateExt                          0x08001ecd   Thumb Code   170  os_task.o(i.OSTaskCreateExt)
    OSTaskCreateHook                         0x08001f85   Thumb Code     2  os_cpu_c.o(i.OSTaskCreateHook)
    OSTaskIdleHook                           0x08001f87   Thumb Code     2  os_cpu_c.o(i.OSTaskIdleHook)
    OSTaskNameSet                            0x08001f89   Thumb Code    98  os_task.o(i.OSTaskNameSet)
    OSTaskResume                             0x08001ff9   Thumb Code   154  os_task.o(i.OSTaskResume)
    OSTaskStatHook                           0x080020a5   Thumb Code     2  os_cpu_c.o(i.OSTaskStatHook)
    OSTaskStkChk                             0x080020a9   Thumb Code   132  os_task.o(i.OSTaskStkChk)
    OSTaskStkInit                            0x08002135   Thumb Code   154  os_cpu_c.o(i.OSTaskStkInit)
    OSTaskSuspend                            0x080021d1   Thumb Code   152  os_task.o(i.OSTaskSuspend)
    OSTaskSwHook                             0x08002279   Thumb Code     2  os_cpu_c.o(i.OSTaskSwHook)
    OSTimeDly                                0x0800227d   Thumb Code   100  os_time.o(i.OSTimeDly)
    OSTimeDlyHMSM                            0x080022f5   Thumb Code    86  os_time.o(i.OSTimeDlyHMSM)
    OSTimeTick                               0x08002355   Thumb Code   210  os_core.o(i.OSTimeTick)
    OSTimeTickHook                           0x08002441   Thumb Code    30  os_cpu_c.o(i.OSTimeTickHook)
    OSTmrSignal                              0x08002465   Thumb Code    16  os_tmr.o(i.OSTmrSignal)
    OSTmr_Init                               0x08002479   Thumb Code   148  os_tmr.o(i.OSTmr_Init)
    OS_EventTaskRdy                          0x080026b1   Thumb Code   114  os_core.o(i.OS_EventTaskRdy)
    OS_EventTaskRemove                       0x08002735   Thumb Code    42  os_core.o(i.OS_EventTaskRemove)
    OS_EventTaskWait                         0x08002761   Thumb Code   112  os_core.o(i.OS_EventTaskWait)
    OS_EventWaitListInit                     0x080027dd   Thumb Code    28  os_core.o(i.OS_EventWaitListInit)
    OS_FlagInit                              0x080027f9   Thumb Code    74  os_flag.o(i.OS_FlagInit)
    OS_MemClr                                0x08002a5d   Thumb Code    18  os_core.o(i.OS_MemClr)
    OS_QInit                                 0x08002a71   Thumb Code    72  os_q.o(i.OS_QInit)
    OS_Sched                                 0x08002ac1   Thumb Code    88  os_core.o(i.OS_Sched)
    OS_TCBInit                               0x08002b61   Thumb Code   278  os_core.o(i.OS_TCBInit)
    OS_TaskIdle                              0x08002c95   Thumb Code    34  os_core.o(i.OS_TaskIdle)
    OS_TaskStat                              0x08002cbd   Thumb Code   116  os_core.o(i.OS_TaskStat)
    OS_TaskStatStkChk                        0x08002d45   Thumb Code    54  os_core.o(i.OS_TaskStatStkChk)
    OS_TaskStkClr                            0x08002d81   Thumb Code    26  os_task.o(i.OS_TaskStkClr)
    PWR_EnterSTOPMode                        0x08002d9d   Thumb Code    54  stm32f10x_pwr.o(i.PWR_EnterSTOPMode)
    RCC_AHBPeriphClockCmd                    0x08002ddd   Thumb Code    26  stm32f10x_rcc.o(i.RCC_AHBPeriphClockCmd)
    RCC_APB1PeriphClockCmd                   0x08002dfd   Thumb Code    26  stm32f10x_rcc.o(i.RCC_APB1PeriphClockCmd)
    RCC_APB1PeriphResetCmd                   0x08002e1d   Thumb Code    26  stm32f10x_rcc.o(i.RCC_APB1PeriphResetCmd)
    RCC_APB2PeriphClockCmd                   0x08002e3d   Thumb Code    26  stm32f10x_rcc.o(i.RCC_APB2PeriphClockCmd)
    RCC_APB2PeriphResetCmd                   0x08002e5d   Thumb Code    26  stm32f10x_rcc.o(i.RCC_APB2PeriphResetCmd)
    RCC_GetClocksFreq                        0x08002e7d   Thumb Code   192  stm32f10x_rcc.o(i.RCC_GetClocksFreq)
    SVC_Handler                              0x08002f51   Thumb Code     2  stm32f10x_it.o(i.SVC_Handler)
    SysTick_CLKSourceConfig                  0x0800303d   Thumb Code    40  misc.o(i.SysTick_CLKSourceConfig)
    SysTick_Handler                          0x08003065   Thumb Code    24  delay.o(i.SysTick_Handler)
    SystemInit                               0x08003081   Thumb Code    78  system_stm32f10x.o(i.SystemInit)
    TIM4_IRQHandler                          0x080030e1   Thumb Code    40  usart2.o(i.TIM4_IRQHandler)
    TIM4_Init                                0x08003111   Thumb Code    92  usart2.o(i.TIM4_Init)
    TIM4_Set                                 0x08003171   Thumb Code    34  usart2.o(i.TIM4_Set)
    TIM_ClearITPendingBit                    0x08003199   Thumb Code     6  stm32f10x_tim.o(i.TIM_ClearITPendingBit)
    TIM_Cmd                                  0x0800319f   Thumb Code    24  stm32f10x_tim.o(i.TIM_Cmd)
    TIM_GetITStatus                          0x080031b7   Thumb Code    34  stm32f10x_tim.o(i.TIM_GetITStatus)
    TIM_ITConfig                             0x080031d9   Thumb Code    18  stm32f10x_tim.o(i.TIM_ITConfig)
    TIM_SetCounter                           0x080031eb   Thumb Code     4  stm32f10x_tim.o(i.TIM_SetCounter)
    TIM_TimeBaseInit                         0x080031f1   Thumb Code   122  stm32f10x_tim.o(i.TIM_TimeBaseInit)
    UART_DMA_Config                          0x08003295   Thumb Code    72  usart2.o(i.UART_DMA_Config)
    UART_DMA_Enable                          0x080032dd   Thumb Code    32  usart2.o(i.UART_DMA_Enable)
    UART_Init                                0x080032fd   Thumb Code   154  usart.o(i.UART_Init)
    UART_SEND_DATA                           0x080033a1   Thumb Code    38  usart2.o(i.UART_SEND_DATA)
    USART1_IRQHandler                        0x080033d1   Thumb Code   130  usart.o(i.USART1_IRQHandler)
    USART2_IRQHandler                        0x08003461   Thumb Code    90  usart2.o(i.USART2_IRQHandler)
    USART2_Init                              0x080034d9   Thumb Code   194  usart2.o(i.USART2_Init)
    USART_Cmd                                0x080035b1   Thumb Code    24  stm32f10x_usart.o(i.USART_Cmd)
    USART_DMACmd                             0x080035c9   Thumb Code    18  stm32f10x_usart.o(i.USART_DMACmd)
    USART_DeInit                             0x080035dd   Thumb Code   134  stm32f10x_usart.o(i.USART_DeInit)
    USART_GetITStatus                        0x08003679   Thumb Code    84  stm32f10x_usart.o(i.USART_GetITStatus)
    USART_ITConfig                           0x080036cd   Thumb Code    74  stm32f10x_usart.o(i.USART_ITConfig)
    USART_Init                               0x08003719   Thumb Code   210  stm32f10x_usart.o(i.USART_Init)
    USART_ReceiveData                        0x080037f1   Thumb Code    10  stm32f10x_usart.o(i.USART_ReceiveData)
    USB_LP_CAN1_RX0_IRQHandler               0x080037fd   Thumb Code    38  can.o(i.USB_LP_CAN1_RX0_IRQHandler)
    UsageFault_Handler                       0x08003829   Thumb Code     4  stm32f10x_it.o(i.UsageFault_Handler)
    WWDG_ClearFlag                           0x0800382d   Thumb Code     8  stm32f10x_wwdg.o(i.WWDG_ClearFlag)
    WWDG_IRQHandler                          0x08003839   Thumb Code    30  wwdg.o(i.WWDG_IRQHandler)
    WWDG_SetCounter                          0x0800385d   Thumb Code    10  stm32f10x_wwdg.o(i.WWDG_SetCounter)
    _is_digit                                0x080038a9   Thumb Code    14  __printf_wp.o(i._is_digit)
    _sys_exit                                0x080038b7   Thumb Code     6  usart.o(i._sys_exit)
    addCanMsgAddr                            0x080038bd   Thumb Code    30  can_task.o(i.addCanMsgAddr)
    addcmdid2filter                          0x080038e5   Thumb Code   104  control.o(i.addcmdid2filter)
    addparseBufferAddr                       0x0800394d   Thumb Code    26  ringbuf.o(i.addparseBufferAddr)
    addringaddr                              0x08003967   Thumb Code    28  detect.o(i.addringaddr)
    addsys_errorcode                         0x08003985   Thumb Code     6  encode.o(i.addsys_errorcode)
    can_queue_init                           0x08003991   Thumb Code    44  can_queue.o(i.can_queue_init)
    can_resolve_speed                        0x080039e1   Thumb Code     8  can_speed.o(i.can_resolve_speed)
    can_sendqueue_init                       0x080039ed   Thumb Code    44  can_queue.o(i.can_sendqueue_init)
    can_set_brandrate                        0x08003a3d   Thumb Code    10  can_task.o(i.can_set_brandrate)
    can_set_filter                           0x08003a47   Thumb Code    16  can_task.o(i.can_set_filter)
    can_task_init                            0x08003a59   Thumb Code   158  can_task.o(i.can_task_init)
    canconvertuart                           0x08003b3d   Thumb Code    88  convert.o(i.canconvertuart)
    canidparse                               0x08003b95   Thumb Code    72  control.o(i.canidparse)
    canreadTask                              0x08003be1   Thumb Code   182  can_task.o(i.canreadTask)
    cansendTask                              0x08003cd1   Thumb Code    86  can_task.o(i.cansendTask)
    cleanBuffer                              0x08003d49   Thumb Code    14  ringbuf.o(i.cleanBuffer)
    clean_canqueue                           0x08003d57   Thumb Code     8  can_queue.o(i.clean_canqueue)
    clean_cansendqueue                       0x08003d5f   Thumb Code     8  can_queue.o(i.clean_cansendqueue)
    cmd_queue_init                           0x08003d69   Thumb Code    62  cmd_queue.o(i.cmd_queue_init)
    cmdid2filter                             0x08003dbd   Thumb Code   104  control.o(i.cmdid2filter)
    cmdsetparse                              0x08003e25   Thumb Code   156  control.o(i.cmdsetparse)
    cmdsetprocess                            0x08003f51   Thumb Code   206  control.o(i.cmdsetprocess)
    control                                  0x0800402d   Thumb Code    66  control.o(i.control)
    controlInit                              0x0800407d   Thumb Code    62  control.o(i.controlInit)
    crc8                                     0x080040cd   Thumb Code    32  crc8.o(i.crc8)
    crc8_creator                             0x080040f1   Thumb Code    26  crc8.o(i.crc8_creator)
    crc8_populate_lsb                        0x0800410b   Thumb Code    60  crc8.o(i.crc8_populate_lsb)
    crc8_populate_msb                        0x08004147   Thumb Code    60  crc8.o(i.crc8_populate_msb)
    crcInit                                  0x08004185   Thumb Code    44  crc8.o(i.crcInit)
    del_headdata_queue                       0x080041b5   Thumb Code    12  can_queue.o(i.del_headdata_queue)
    delay_init                               0x080041c1   Thumb Code    76  delay.o(i.delay_init)
    detectcrc8                               0x0800421d   Thumb Code    48  detect.o(i.detectcrc8)
    detectvaildMsgtype                       0x08004265   Thumb Code    76  detect.o(i.detectvaildMsgtype)
    detectvaildSync                          0x080042c5   Thumb Code    82  detect.o(i.detectvaildSync)
    displaystatus                            0x08004319   Thumb Code   180  schedule_task.o(i.displaystatus)
    entry_sleep_mode                         0x080043e9   Thumb Code    40  sleepwakeup.o(i.entry_sleep_mode)
    exti_Init                                0x0800442d   Thumb Code   136  frameware.o(i.exti_Init)
    flush                                    0x080044ff   Thumb Code    56  ringbuf.o(i.flush)
    fputc                                    0x08004539   Thumb Code    24  usart.o(i.fputc)
    getCanMsgAddr                            0x08004555   Thumb Code    50  can_task.o(i.getCanMsgAddr)
    getCanReadTaskStatus                     0x08004591   Thumb Code     6  can_task.o(i.getCanReadTaskStatus)
    getCanSendTaskStatus                     0x0800459d   Thumb Code     6  can_task.o(i.getCanSendTaskStatus)
    get_can_brandrate                        0x080045a9   Thumb Code     6  can_task.o(i.get_can_brandrate)
    get_can_speed                            0x080045b5   Thumb Code     6  can_speed.o(i.get_can_speed)
    get_canbus_status                        0x080045c1   Thumb Code     6  can_speed.o(i.get_canbus_status)
    get_cmd_queue                            0x080045cd   Thumb Code    48  cmd_queue.o(i.get_cmd_queue)
    get_headdata_queue                       0x080045fd   Thumb Code    32  can_queue.o(i.get_headdata_queue)
    get_send_packet                          0x0800461d   Thumb Code    42  encode.o(i.get_send_packet)
    get_send_queue                           0x08004647   Thumb Code    44  can_queue.o(i.get_send_queue)
    get_status_packet                        0x08004675   Thumb Code    82  encode.o(i.get_status_packet)
    getcontrolCmd                            0x080046cd   Thumb Code    50  control.o(i.getcontrolCmd)
    getdatafromBuffer                        0x08004709   Thumb Code   102  ringbuf.o(i.getdatafromBuffer)
    isresponse                               0x0800478d   Thumb Code     6  control.o(i.isresponse)
    keyAcc_Init                              0x08004799   Thumb Code    34  keyacc.o(i.keyAcc_Init)
    keyAcc_Scan                              0x080047c1   Thumb Code    14  keyacc.o(i.keyAcc_Scan)
    main                                     0x080047d5   Thumb Code    52  main.o(i.main)
    pause_can_task                           0x08004815   Thumb Code    34  can_task.o(i.pause_can_task)
    pause_read_can_task                      0x08004839   Thumb Code    76  can_task.o(i.pause_read_can_task)
    pause_read_uart_task                     0x080048c9   Thumb Code    80  uart_task.o(i.pause_read_uart_task)
    pause_send_can_task                      0x08004941   Thumb Code    76  can_task.o(i.pause_send_can_task)
    pause_send_uart_task                     0x080049d1   Thumb Code    80  uart_task.o(i.pause_send_uart_task)
    pause_uart_task                          0x08004a49   Thumb Code    34  uart_task.o(i.pause_uart_task)
    put_cmd_queue                            0x08004a6d   Thumb Code    62  cmd_queue.o(i.put_cmd_queue)
    put_data_queue                           0x08004abd   Thumb Code    62  can_queue.o(i.put_data_queue)
    put_send_queue                           0x08004b05   Thumb Code    58  can_queue.o(i.put_send_queue)
    putcansendPacket                         0x08004b59   Thumb Code    54  can_task.o(i.putcansendPacket)
    putcontrolCmd                            0x08004bb9   Thumb Code    34  control.o(i.putcontrolCmd)
    putdatatoBuffer                          0x08004be5   Thumb Code   148  ringbuf.o(i.putdatatoBuffer)
    resolve_can_message                      0x08004cb5   Thumb Code    40  can_task.o(i.resolve_can_message)
    responsefinish                           0x08004ce9   Thumb Code     8  control.o(i.responsefinish)
    ringbufferInit                           0x08004cf5   Thumb Code    52  ringbuf.o(i.ringbufferInit)
    schedule_indicate_task                   0x08004d3d   Thumb Code    66  schedule_task.o(i.schedule_indicate_task)
    schedule_task_init                       0x08004d85   Thumb Code    44  schedule_task.o(i.schedule_task_init)
    setGPIOModeToAllPins                     0x08004db9   Thumb Code    90  frameware.o(i.setGPIOModeToAllPins)
    set_canbus_status                        0x08004e31   Thumb Code     6  can_speed.o(i.set_canbus_status)
    set_system_status                        0x08004e3d   Thumb Code     6  schedule_task.o(i.set_system_status)
    start_can_task                           0x08004e49   Thumb Code    28  can_task.o(i.start_can_task)
    start_canread_task                       0x08004e65   Thumb Code    82  can_task.o(i.start_canread_task)
    start_cansend_task                       0x08004efd   Thumb Code    82  can_task.o(i.start_cansend_task)
    start_task                               0x08004f95   Thumb Code    90  main.o(i.start_task)
    start_uart_read_task                     0x08005005   Thumb Code    84  uart_task.o(i.start_uart_read_task)
    start_uart_send_task                     0x08005095   Thumb Code    78  uart_task.o(i.start_uart_send_task)
    start_uart_task                          0x0800511d   Thumb Code    28  uart_task.o(i.start_uart_task)
    startcansend                             0x08005139   Thumb Code    28  can_task.o(i.startcansend)
    sys_mode_entry                           0x080051b9   Thumb Code    34  sleepwakeup.o(i.sys_mode_entry)
    sys_stop_mode                            0x080051db   Thumb Code    20  sleepwakeup.o(i.sys_stop_mode)
    sys_switch                               0x080051f1   Thumb Code    46  frameware.o(i.sys_switch)
    uart_send_speed                          0x080053e5   Thumb Code    74  can_speed.o(i.uart_send_speed)
    uart_task_Init                           0x080054e9   Thumb Code   134  uart_task.o(i.uart_task_Init)
    uartconvertcan                           0x0800559d   Thumb Code    64  convert.o(i.uartconvertcan)
    OSUnMapTbl                               0x080055dc   Data         256  os_core.o(.constdata)
    Region$$Table$$Base                      0x080057f8   Number         0  anon$$obj.o(Region$$Table)
    Region$$Table$$Limit                     0x08005818   Number         0  anon$$obj.o(Region$$Table)
    SystemCoreClock                          0x20000000   Data           4  system_stm32f10x.o(.data)
    AHBPrescTable                            0x20000004   Data          16  system_stm32f10x.o(.data)
    OSCtxSwCtr                               0x20000014   Data           4  os_core.o(.data)
    OSEventFreeList                          0x20000018   Data           4  os_core.o(.data)
    OSFlagFreeList                           0x2000001c   Data           4  os_core.o(.data)
    OSCPUUsage                               0x20000020   Data           1  os_core.o(.data)
    OSIdleCtrMax                             0x20000024   Data           4  os_core.o(.data)
    OSIdleCtrRun                             0x20000028   Data           4  os_core.o(.data)
    OSStatRdy                                0x2000002c   Data           1  os_core.o(.data)
    OSIntNesting                             0x2000002d   Data           1  os_core.o(.data)
    OSLockNesting                            0x2000002e   Data           1  os_core.o(.data)
    OSPrioCur                                0x2000002f   Data           1  os_core.o(.data)
    OSPrioHighRdy                            0x20000030   Data           1  os_core.o(.data)
    OSRdyGrp                                 0x20000031   Data           1  os_core.o(.data)
    OSRdyTbl                                 0x20000032   Data           8  os_core.o(.data)
    OSRunning                                0x2000003a   Data           1  os_core.o(.data)
    OSTaskCtr                                0x2000003b   Data           1  os_core.o(.data)
    OSIdleCtr                                0x2000003c   Data           4  os_core.o(.data)
    OSTCBCur                                 0x20000040   Data           4  os_core.o(.data)
    OSTCBFreeList                            0x20000044   Data           4  os_core.o(.data)
    OSTCBHighRdy                             0x20000048   Data           4  os_core.o(.data)
    OSTCBList                                0x2000004c   Data           4  os_core.o(.data)
    OSTickStepState                          0x20000050   Data           1  os_core.o(.data)
    OSQFreeList                              0x20000054   Data           4  os_core.o(.data)
    OSTime                                   0x20000058   Data           4  os_core.o(.data)
    OSTmrFree                                0x2000005c   Data           2  os_core.o(.data)
    OSTmrUsed                                0x2000005e   Data           2  os_core.o(.data)
    OSTmrTime                                0x20000060   Data           4  os_core.o(.data)
    OSTmrSem                                 0x20000064   Data           4  os_core.o(.data)
    OSTmrSemSignal                           0x20000068   Data           4  os_core.o(.data)
    OSTmrFreeList                            0x2000006c   Data           4  os_core.o(.data)
    OSInterrputSum                           0x20000070   Data           4  os_cpu_c.o(.data)
    USART2_RX_STA                            0x20000076   Data           2  usart2.o(.data)
    __stdout                                 0x2000007c   Data           4  usart.o(.data)
    USART_RX_STA                             0x20000080   Data           2  usart.o(.data)
    baudrate                                 0x20000096   Data           4  main.o(.data)
    tmr                                      0x2000009c   Data           4  schedule_task.o(.data)
    tmrname                                  0x200000a0   Data           4  schedule_task.o(.data)
    g_system_state                           0x200000a4   Data           1  schedule_task.o(.data)
    default_filter                           0x200000ac   Data          24  can_task.o(.data)
    g_istxfinished                           0x200000dc   Data           1  can_task.o(.data)
    g_isfinished                             0x200000dd   Data           1  can_task.o(.data)
    g_speed                                  0x2000011e   Data           2  can_speed.o(.data)
    g_isvaild                                0x20000120   Data           1  can_speed.o(.data)
    mfilter                                  0x20000130   Data          72  control.o(.data)
    OSEventTbl                               0x20000178   Data         260  os_core.o(.bss)
    OSFlagTbl                                0x2000027c   Data          80  os_core.o(.bss)
    OSTaskStatStk                            0x200002cc   Data         512  os_core.o(.bss)
    OSTaskIdleStk                            0x200004cc   Data         512  os_core.o(.bss)
    OSTCBPrioTbl                             0x200006cc   Data         256  os_core.o(.bss)
    OSTCBTbl                                 0x200007cc   Data        1008  os_core.o(.bss)
    OSQTbl                                   0x20000bbc   Data         120  os_core.o(.bss)
    OSTmrTbl                                 0x20000c34   Data         640  os_core.o(.bss)
    OSTmrTaskStk                             0x20000eb4   Data         512  os_core.o(.bss)
    OSTmrWheelTbl                            0x200010b4   Data          64  os_core.o(.bss)
    USART2_TX_BUF                            0x200010f8   Data         200  usart2.o(.bss)
    USART2_RX_BUF                            0x200011c0   Data         200  usart2.o(.bss)
    USART_RX_BUF                             0x20001288   Data         200  usart.o(.bss)
    START_TASK_STK                           0x20001450   Data         512  main.o(.bss)
    CHK_TASK_STK                             0x20001650   Data         384  main.o(.bss)
    SCHEDULE_INDICATE_TASK_STK               0x200017d0   Data         256  schedule_task.o(.bss)
    CAN_READ_TASK_STK                        0x200018d0   Data         256  can_task.o(.bss)
    CAN_SEND_TASK_STK                        0x200019d0   Data         512  can_task.o(.bss)
    g_RxMsg                                  0x20001bd0   Data          20  can_task.o(.bss)
    CAN_QUEUE_INFO                           0x20001be4   Data          12  can_task.o(.bss)
    CAN_SEND_INFO                            0x20001bf0   Data          12  can_task.o(.bss)
    UART_SEND_TASK_STK                       0x20001bfc   Data         384  uart_task.o(.bss)
    UART_READ_TASK_STK                       0x20001d7c   Data         256  uart_task.o(.bss)
    UART_PARSE_TASK_STK                      0x20001e7c   Data         256  uart_task.o(.bss)
    cmd                                      0x20002128   Data         112  cmd_queue.o(.bss)
    CMDINFO                                  0x20002198   Data          36  control.o(.bss)
    setcmd                                   0x200021bc   Data           9  control.o(.bss)
    idcmd                                    0x200021c8   Data          72  control.o(.bss)
    __libspace_start                         0x20002220   Data          96  libspace.o(.bss)
    __temporary_stack_top$libspace           0x20002280   Data           0  libspace.o(.bss)



==============================================================================

Memory Map of the image

  Image Entry point : 0x080000ed

  Load Region LR_IROM1 (Base: 0x08000000, Size: 0x00005990, Max: 0x00010000, ABSOLUTE, COMPRESSED[0x00005870])

    Execution Region ER_IROM1 (Base: 0x08000000, Size: 0x00005818, Max: 0x00010000, ABSOLUTE)

    Base Addr    Size         Type   Attr      Idx    E Section Name        Object

    0x08000000   0x000000ec   Data   RO          163    RESET               startup_stm32f10x_md.o
    0x080000ec   0x00000008   Code   RO         3908  * !!!main             c_w.l(__main.o)
    0x080000f4   0x00000034   Code   RO         4222    !!!scatter          c_w.l(__scatter.o)
    0x08000128   0x0000005a   Code   RO         4220    !!dczerorl2         c_w.l(__dczerorl2.o)
    0x08000182   0x00000002   PAD
    0x08000184   0x0000001c   Code   RO         4224    !!handler_zi        c_w.l(__scatter_zi.o)
    0x080001a0   0x00000000   Code   RO         3895    .ARM.Collect$$_printf_percent$$00000000  c_w.l(_printf_percent.o)
    0x080001a0   0x00000006   Code   RO         3894    .ARM.Collect$$_printf_percent$$00000009  c_w.l(_printf_d.o)
    0x080001a6   0x00000006   Code   RO         3893    .ARM.Collect$$_printf_percent$$0000000C  c_w.l(_printf_x.o)
    0x080001ac   0x00000006   Code   RO         3892    .ARM.Collect$$_printf_percent$$00000014  c_w.l(_printf_s.o)
    0x080001b2   0x00000004   Code   RO         3981    .ARM.Collect$$_printf_percent$$00000017  c_w.l(_printf_percent_end.o)
    0x080001b6   0x00000002   Code   RO         4152    .ARM.Collect$$libinit$$00000000  c_w.l(libinit.o)
    0x080001b8   0x00000000   Code   RO         3994    .ARM.Collect$$libinit$$00000002  c_w.l(libinit2.o)
    0x080001b8   0x00000000   Code   RO         3996    .ARM.Collect$$libinit$$00000004  c_w.l(libinit2.o)
    0x080001b8   0x00000000   Code   RO         3999    .ARM.Collect$$libinit$$0000000A  c_w.l(libinit2.o)
    0x080001b8   0x00000000   Code   RO         4001    .ARM.Collect$$libinit$$0000000C  c_w.l(libinit2.o)
    0x080001b8   0x00000000   Code   RO         4003    .ARM.Collect$$libinit$$0000000E  c_w.l(libinit2.o)
    0x080001b8   0x00000000   Code   RO         4006    .ARM.Collect$$libinit$$00000011  c_w.l(libinit2.o)
    0x080001b8   0x00000000   Code   RO         4008    .ARM.Collect$$libinit$$00000013  c_w.l(libinit2.o)
    0x080001b8   0x00000000   Code   RO         4010    .ARM.Collect$$libinit$$00000015  c_w.l(libinit2.o)
    0x080001b8   0x00000000   Code   RO         4012    .ARM.Collect$$libinit$$00000017  c_w.l(libinit2.o)
    0x080001b8   0x00000000   Code   RO         4014    .ARM.Collect$$libinit$$00000019  c_w.l(libinit2.o)
    0x080001b8   0x00000000   Code   RO         4016    .ARM.Collect$$libinit$$0000001B  c_w.l(libinit2.o)
    0x080001b8   0x00000000   Code   RO         4018    .ARM.Collect$$libinit$$0000001D  c_w.l(libinit2.o)
    0x080001b8   0x00000000   Code   RO         4020    .ARM.Collect$$libinit$$0000001F  c_w.l(libinit2.o)
    0x080001b8   0x00000000   Code   RO         4022    .ARM.Collect$$libinit$$00000021  c_w.l(libinit2.o)
    0x080001b8   0x00000000   Code   RO         4024    .ARM.Collect$$libinit$$00000023  c_w.l(libinit2.o)
    0x080001b8   0x00000000   Code   RO         4026    .ARM.Collect$$libinit$$00000025  c_w.l(libinit2.o)
    0x080001b8   0x00000000   Code   RO         4030    .ARM.Collect$$libinit$$0000002C  c_w.l(libinit2.o)
    0x080001b8   0x00000000   Code   RO         4032    .ARM.Collect$$libinit$$0000002E  c_w.l(libinit2.o)
    0x080001b8   0x00000000   Code   RO         4034    .ARM.Collect$$libinit$$00000030  c_w.l(libinit2.o)
    0x080001b8   0x00000000   Code   RO         4036    .ARM.Collect$$libinit$$00000032  c_w.l(libinit2.o)
    0x080001b8   0x00000002   Code   RO         4037    .ARM.Collect$$libinit$$00000033  c_w.l(libinit2.o)
    0x080001ba   0x00000002   Code   RO         4217    .ARM.Collect$$libshutdown$$00000000  c_w.l(libshutdown.o)
    0x080001bc   0x00000000   Code   RO         4175    .ARM.Collect$$libshutdown$$00000003  c_w.l(libshutdown2.o)
    0x080001bc   0x00000000   Code   RO         4178    .ARM.Collect$$libshutdown$$00000006  c_w.l(libshutdown2.o)
    0x080001bc   0x00000000   Code   RO         4181    .ARM.Collect$$libshutdown$$00000009  c_w.l(libshutdown2.o)
    0x080001bc   0x00000000   Code   RO         4183    .ARM.Collect$$libshutdown$$0000000B  c_w.l(libshutdown2.o)
    0x080001bc   0x00000000   Code   RO         4186    .ARM.Collect$$libshutdown$$0000000E  c_w.l(libshutdown2.o)
    0x080001bc   0x00000002   Code   RO         4187    .ARM.Collect$$libshutdown$$0000000F  c_w.l(libshutdown2.o)
    0x080001be   0x00000000   Code   RO         3914    .ARM.Collect$$rtentry$$00000000  c_w.l(__rtentry.o)
    0x080001be   0x00000000   Code   RO         4046    .ARM.Collect$$rtentry$$00000002  c_w.l(__rtentry2.o)
    0x080001be   0x00000006   Code   RO         4058    .ARM.Collect$$rtentry$$00000004  c_w.l(__rtentry4.o)
    0x080001c4   0x00000000   Code   RO         4048    .ARM.Collect$$rtentry$$00000009  c_w.l(__rtentry2.o)
    0x080001c4   0x00000004   Code   RO         4049    .ARM.Collect$$rtentry$$0000000A  c_w.l(__rtentry2.o)
    0x080001c8   0x00000000   Code   RO         4051    .ARM.Collect$$rtentry$$0000000C  c_w.l(__rtentry2.o)
    0x080001c8   0x00000008   Code   RO         4052    .ARM.Collect$$rtentry$$0000000D  c_w.l(__rtentry2.o)
    0x080001d0   0x00000002   Code   RO         4158    .ARM.Collect$$rtexit$$00000000  c_w.l(rtexit.o)
    0x080001d2   0x00000000   Code   RO         4191    .ARM.Collect$$rtexit$$00000002  c_w.l(rtexit2.o)
    0x080001d2   0x00000004   Code   RO         4192    .ARM.Collect$$rtexit$$00000003  c_w.l(rtexit2.o)
    0x080001d6   0x00000006   Code   RO         4193    .ARM.Collect$$rtexit$$00000004  c_w.l(rtexit2.o)
    0x080001dc   0x00000040   Code   RO          164    .text               startup_stm32f10x_md.o
    0x0800021c   0x000000b4   Code   RO          999    .text               os_cpu_a.o
    0x080002d0   0x00000002   Code   RO         3779    .text               c_w.l(use_no_semi_2.o)
    0x080002d2   0x00000002   PAD
    0x080002d4   0x00000018   Code   RO         3839    .text               c_w.l(__2printf.o)
    0x080002ec   0x0000004e   Code   RO         3845    .text               c_w.l(_printf_pad.o)
    0x0800033a   0x00000052   Code   RO         3847    .text               c_w.l(_printf_str.o)
    0x0800038c   0x00000078   Code   RO         3849    .text               c_w.l(_printf_dec.o)
    0x08000404   0x00000094   Code   RO         3869    .text               c_w.l(_printf_hex_int_ll_ptr.o)
    0x08000498   0x00000188   Code   RO         3889    .text               c_w.l(__printf_flags_ss_wp.o)
    0x08000620   0x0000008a   Code   RO         3898    .text               c_w.l(rt_memcpy_v6.o)
    0x080006aa   0x00000064   Code   RO         3900    .text               c_w.l(rt_memcpy_w.o)
    0x0800070e   0x00000044   Code   RO         3902    .text               c_w.l(rt_memclr.o)
    0x08000752   0x0000004e   Code   RO         3904    .text               c_w.l(rt_memclr_w.o)
    0x080007a0   0x00000006   Code   RO         3906    .text               c_w.l(heapauxi.o)
    0x080007a6   0x00000002   Code   RO         3910    .text               c_w.l(use_no_semi.o)
    0x080007a8   0x000000b2   Code   RO         3948    .text               c_w.l(_printf_intcommon.o)
    0x0800085a   0x00000002   PAD
    0x0800085c   0x00000030   Code   RO         3952    .text               c_w.l(_printf_char_common.o)
    0x0800088c   0x0000002c   Code   RO         3956    .text               c_w.l(_printf_char.o)
    0x080008b8   0x00000024   Code   RO         3958    .text               c_w.l(_printf_char_file.o)
    0x080008dc   0x00000008   Code   RO         4042    .text               c_w.l(libspace.o)
    0x080008e4   0x00000008   Code   RO         4076    .text               c_w.l(ferror.o)
    0x080008ec   0x0000004a   Code   RO         4094    .text               c_w.l(sys_stackheap_outer.o)
    0x08000936   0x0000000c   Code   RO         4137    .text               c_w.l(exit.o)
    0x08000942   0x00000004   Code   RO            1    i.BusFault_Handler  stm32f10x_it.o
    0x08000946   0x00000002   PAD
    0x08000948   0x00000038   Code   RO         1429    i.CAN_DeInit        stm32f10x_can.o
    0x08000980   0x0000010c   Code   RO         1002    i.CAN_FILTERINIT    can.o
    0x08000a8c   0x00000108   Code   RO         1431    i.CAN_FilterInit    stm32f10x_can.o
    0x08000b94   0x0000004c   Code   RO         1003    i.CAN_GPIO_Config   can.o
    0x08000be0   0x000000c4   Code   RO         1004    i.CAN_INIT          can.o
    0x08000ca4   0x00000012   Code   RO         1437    i.CAN_ITConfig      stm32f10x_can.o
    0x08000cb6   0x00000114   Code   RO         1438    i.CAN_Init          stm32f10x_can.o
    0x08000dca   0x0000002c   Code   RO         1005    i.CAN_NVIC_Configuration  can.o
    0x08000df6   0x000000f0   Code   RO         1441    i.CAN_Receive       stm32f10x_can.o
    0x08000ee6   0x00000020   Code   RO         1444    i.CAN_StructInit    stm32f10x_can.o
    0x08000f06   0x00000002   PAD
    0x08000f08   0x0000007c   Code   RO         1006    i.CAN_TRANSMIT      can.o
    0x08000f84   0x00000126   Code   RO         1446    i.CAN_Transmit      stm32f10x_can.o
    0x080010aa   0x00000018   Code   RO         2624    i.DMA_Cmd           stm32f10x_dma.o
    0x080010c2   0x00000002   PAD
    0x080010c4   0x0000014c   Code   RO         2625    i.DMA_DeInit        stm32f10x_dma.o
    0x08001210   0x00000008   Code   RO         2626    i.DMA_GetCurrDataCounter  stm32f10x_dma.o
    0x08001218   0x0000003c   Code   RO         2630    i.DMA_Init          stm32f10x_dma.o
    0x08001254   0x00000004   Code   RO         2631    i.DMA_SetCurrDataCounter  stm32f10x_dma.o
    0x08001258   0x00000002   Code   RO            2    i.DebugMon_Handler  stm32f10x_it.o
    0x0800125a   0x00000002   PAD
    0x0800125c   0x00000084   Code   RO         3714    i.EXTI15_10_IRQHandler  frameware.o
    0x080012e0   0x0000000c   Code   RO         2833    i.EXTI_ClearITPendingBit  stm32f10x_exti.o
    0x080012ec   0x00000028   Code   RO         2837    i.EXTI_GetITStatus  stm32f10x_exti.o
    0x08001314   0x00000094   Code   RO         2838    i.EXTI_Init         stm32f10x_exti.o
    0x080013a8   0x0000005e   Code   RO         3715    i.FRAMEWORK_INIT    frameware.o
    0x08001406   0x00000002   PAD
    0x08001408   0x00000040   Code   RO         1583    i.GPIO_EXTILineConfig  stm32f10x_gpio.o
    0x08001448   0x00000116   Code   RO         1586    i.GPIO_Init         stm32f10x_gpio.o
    0x0800155e   0x00000002   PAD
    0x08001560   0x00000090   Code   RO         1588    i.GPIO_PinRemapConfig  stm32f10x_gpio.o
    0x080015f0   0x00000012   Code   RO         1590    i.GPIO_ReadInputDataBit  stm32f10x_gpio.o
    0x08001602   0x00000004   Code   RO         1594    i.GPIO_SetBits      stm32f10x_gpio.o
    0x08001606   0x00000004   Code   RO            3    i.HardFault_Handler  stm32f10x_it.o
    0x0800160a   0x00000002   PAD
    0x0800160c   0x00000084   Code   RO         1075    i.LED_Init          led.o
    0x08001690   0x00000004   Code   RO            4    i.MemManage_Handler  stm32f10x_it.o
    0x08001694   0x00000014   Code   RO         3444    i.MsgCounter        encode.o
    0x080016a8   0x00000002   Code   RO            5    i.NMI_Handler       stm32f10x_it.o
    0x080016aa   0x00000002   PAD
    0x080016ac   0x00000070   Code   RO         1389    i.NVIC_Init         misc.o
    0x0800171c   0x00000014   Code   RO         1390    i.NVIC_PriorityGroupConfig  misc.o
    0x08001730   0x00000014   Code   RO         1391    i.NVIC_SetVectorTable  misc.o
    0x08001744   0x00000030   Code   RO          168    i.OSInit            os_core.o
    0x08001774   0x0000000c   Code   RO          917    i.OSInitHookBegin   os_cpu_c.o
    0x08001780   0x00000002   Code   RO          918    i.OSInitHookEnd     os_cpu_c.o
    0x08001782   0x00000002   PAD
    0x08001784   0x00000024   Code   RO          169    i.OSIntEnter        os_core.o
    0x080017a8   0x00000090   Code   RO          170    i.OSIntExit         os_core.o
    0x08001838   0x00000094   Code   RO          523    i.OSMutexCreate     os_mutex.o
    0x080018cc   0x00000238   Code   RO          525    i.OSMutexPend       os_mutex.o
    0x08001b04   0x000000c8   Code   RO          526    i.OSMutexPost       os_mutex.o
    0x08001bcc   0x00000084   Code   RO          528    i.OSMutex_RdyAtPrio  os_mutex.o
    0x08001c50   0x00000040   Code   RO          171    i.OSSchedLock       os_core.o
    0x08001c90   0x00000060   Code   RO          172    i.OSSchedUnlock     os_core.o
    0x08001cf0   0x0000004c   Code   RO          642    i.OSSemCreate       os_sem.o
    0x08001d3c   0x000000ec   Code   RO          644    i.OSSemPend         os_sem.o
    0x08001e28   0x00000058   Code   RO          646    i.OSSemPost         os_sem.o
    0x08001e80   0x00000048   Code   RO          173    i.OSStart           os_core.o
    0x08001ec8   0x00000002   Code   RO          919    i.OSTCBInitHook     os_cpu_c.o
    0x08001eca   0x00000002   PAD
    0x08001ecc   0x000000b8   Code   RO          697    i.OSTaskCreateExt   os_task.o
    0x08001f84   0x00000002   Code   RO          920    i.OSTaskCreateHook  os_cpu_c.o
    0x08001f86   0x00000002   Code   RO          922    i.OSTaskIdleHook    os_cpu_c.o
    0x08001f88   0x00000070   Code   RO          701    i.OSTaskNameSet     os_task.o
    0x08001ff8   0x000000ac   Code   RO          705    i.OSTaskResume      os_task.o
    0x080020a4   0x00000002   Code   RO          924    i.OSTaskStatHook    os_cpu_c.o
    0x080020a6   0x00000002   PAD
    0x080020a8   0x0000008c   Code   RO          706    i.OSTaskStkChk      os_task.o
    0x08002134   0x0000009a   Code   RO          925    i.OSTaskStkInit     os_cpu_c.o
    0x080021ce   0x00000002   PAD
    0x080021d0   0x000000a8   Code   RO          707    i.OSTaskSuspend     os_task.o
    0x08002278   0x00000002   Code   RO          926    i.OSTaskSwHook      os_cpu_c.o
    0x0800227a   0x00000002   PAD
    0x0800227c   0x00000078   Code   RO          791    i.OSTimeDly         os_time.o
    0x080022f4   0x00000060   Code   RO          792    i.OSTimeDlyHMSM     os_time.o
    0x08002354   0x000000ec   Code   RO          175    i.OSTimeTick        os_core.o
    0x08002440   0x00000024   Code   RO          927    i.OSTimeTickHook    os_cpu_c.o
    0x08002464   0x00000014   Code   RO          831    i.OSTmrSignal       os_tmr.o
    0x08002478   0x000000b8   Code   RO          837    i.OSTmr_Init        os_tmr.o
    0x08002530   0x00000050   Code   RO          838    i.OSTmr_InitTask    os_tmr.o
    0x08002580   0x0000006c   Code   RO          839    i.OSTmr_Link        os_tmr.o
    0x080025ec   0x00000080   Code   RO          840    i.OSTmr_Task        os_tmr.o
    0x0800266c   0x00000044   Code   RO          841    i.OSTmr_Unlink      os_tmr.o
    0x080026b0   0x00000084   Code   RO          178    i.OS_EventTaskRdy   os_core.o
    0x08002734   0x0000002a   Code   RO          179    i.OS_EventTaskRemove  os_core.o
    0x0800275e   0x00000002   PAD
    0x08002760   0x0000007c   Code   RO          180    i.OS_EventTaskWait  os_core.o
    0x080027dc   0x0000001c   Code   RO          181    i.OS_EventWaitListInit  os_core.o
    0x080027f8   0x00000058   Code   RO          386    i.OS_FlagInit       os_flag.o
    0x08002850   0x00000054   Code   RO          182    i.OS_InitEventList  os_core.o
    0x080028a4   0x00000054   Code   RO          183    i.OS_InitMisc       os_core.o
    0x080028f8   0x00000044   Code   RO          184    i.OS_InitRdyList    os_core.o
    0x0800293c   0x00000080   Code   RO          185    i.OS_InitTCBList    os_core.o
    0x080029bc   0x00000050   Code   RO          186    i.OS_InitTaskIdle   os_core.o
    0x08002a0c   0x00000050   Code   RO          187    i.OS_InitTaskStat   os_core.o
    0x08002a5c   0x00000012   Code   RO          188    i.OS_MemClr         os_core.o
    0x08002a6e   0x00000002   PAD
    0x08002a70   0x00000050   Code   RO          579    i.OS_QInit          os_q.o
    0x08002ac0   0x00000074   Code   RO          190    i.OS_Sched          os_core.o
    0x08002b34   0x0000002c   Code   RO          191    i.OS_SchedNew       os_core.o
    0x08002b60   0x00000134   Code   RO          193    i.OS_TCBInit        os_core.o
    0x08002c94   0x00000028   Code   RO          194    i.OS_TaskIdle       os_core.o
    0x08002cbc   0x00000088   Code   RO          195    i.OS_TaskStat       os_core.o
    0x08002d44   0x0000003c   Code   RO          196    i.OS_TaskStatStkChk  os_core.o
    0x08002d80   0x0000001a   Code   RO          709    i.OS_TaskStkClr     os_task.o
    0x08002d9a   0x00000002   PAD
    0x08002d9c   0x00000040   Code   RO         2698    i.PWR_EnterSTOPMode  stm32f10x_pwr.o
    0x08002ddc   0x00000020   Code   RO         2423    i.RCC_AHBPeriphClockCmd  stm32f10x_rcc.o
    0x08002dfc   0x00000020   Code   RO         2424    i.RCC_APB1PeriphClockCmd  stm32f10x_rcc.o
    0x08002e1c   0x00000020   Code   RO         2425    i.RCC_APB1PeriphResetCmd  stm32f10x_rcc.o
    0x08002e3c   0x00000020   Code   RO         2426    i.RCC_APB2PeriphClockCmd  stm32f10x_rcc.o
    0x08002e5c   0x00000020   Code   RO         2427    i.RCC_APB2PeriphResetCmd  stm32f10x_rcc.o
    0x08002e7c   0x000000d4   Code   RO         2434    i.RCC_GetClocksFreq  stm32f10x_rcc.o
    0x08002f50   0x00000002   Code   RO            6    i.SVC_Handler       stm32f10x_it.o
    0x08002f52   0x00000008   Code   RO          116    i.SetSysClock       system_stm32f10x.o
    0x08002f5a   0x00000002   PAD
    0x08002f5c   0x000000e0   Code   RO          117    i.SetSysClockTo72   system_stm32f10x.o
    0x0800303c   0x00000028   Code   RO         1393    i.SysTick_CLKSourceConfig  misc.o
    0x08003064   0x0000001c   Code   RO         1222    i.SysTick_Handler   delay.o
    0x08003080   0x00000060   Code   RO          119    i.SystemInit        system_stm32f10x.o
    0x080030e0   0x00000030   Code   RO         1087    i.TIM4_IRQHandler   usart2.o
    0x08003110   0x00000060   Code   RO         1088    i.TIM4_Init         usart2.o
    0x08003170   0x00000028   Code   RO         1089    i.TIM4_Set          usart2.o
    0x08003198   0x00000006   Code   RO         1885    i.TIM_ClearITPendingBit  stm32f10x_tim.o
    0x0800319e   0x00000018   Code   RO         1890    i.TIM_Cmd           stm32f10x_tim.o
    0x080031b6   0x00000022   Code   RO         1911    i.TIM_GetITStatus   stm32f10x_tim.o
    0x080031d8   0x00000012   Code   RO         1915    i.TIM_ITConfig      stm32f10x_tim.o
    0x080031ea   0x00000004   Code   RO         1955    i.TIM_SetCounter    stm32f10x_tim.o
    0x080031ee   0x00000002   PAD
    0x080031f0   0x000000a4   Code   RO         1961    i.TIM_TimeBaseInit  stm32f10x_tim.o
    0x08003294   0x00000048   Code   RO         1090    i.UART_DMA_Config   usart2.o
    0x080032dc   0x00000020   Code   RO         1091    i.UART_DMA_Enable   usart2.o
    0x080032fc   0x000000a4   Code   RO         1300    i.UART_Init         usart.o
    0x080033a0   0x00000030   Code   RO         1092    i.UART_SEND_DATA    usart2.o
    0x080033d0   0x00000090   Code   RO         1301    i.USART1_IRQHandler  usart.o
    0x08003460   0x00000078   Code   RO         1093    i.USART2_IRQHandler  usart2.o
    0x080034d8   0x000000d8   Code   RO         1094    i.USART2_Init       usart2.o
    0x080035b0   0x00000018   Code   RO         1698    i.USART_Cmd         stm32f10x_usart.o
    0x080035c8   0x00000012   Code   RO         1699    i.USART_DMACmd      stm32f10x_usart.o
    0x080035da   0x00000002   PAD
    0x080035dc   0x0000009c   Code   RO         1700    i.USART_DeInit      stm32f10x_usart.o
    0x08003678   0x00000054   Code   RO         1702    i.USART_GetITStatus  stm32f10x_usart.o
    0x080036cc   0x0000004a   Code   RO         1704    i.USART_ITConfig    stm32f10x_usart.o
    0x08003716   0x00000002   PAD
    0x08003718   0x000000d8   Code   RO         1705    i.USART_Init        stm32f10x_usart.o
    0x080037f0   0x0000000a   Code   RO         1712    i.USART_ReceiveData  stm32f10x_usart.o
    0x080037fa   0x00000002   PAD
    0x080037fc   0x0000002c   Code   RO         1007    i.USB_LP_CAN1_RX0_IRQHandler  can.o
    0x08003828   0x00000004   Code   RO            7    i.UsageFault_Handler  stm32f10x_it.o
    0x0800382c   0x0000000c   Code   RO         2928    i.WWDG_ClearFlag    stm32f10x_wwdg.o
    0x08003838   0x00000024   Code   RO         1186    i.WWDG_IRQHandler   wwdg.o
    0x0800385c   0x00000010   Code   RO         2933    i.WWDG_SetCounter   stm32f10x_wwdg.o
    0x0800386c   0x0000003c   Code   RO         3067    i._getcansendPacket  can_task.o
    0x080038a8   0x0000000e   Code   RO         3882    i._is_digit         c_w.l(__printf_wp.o)
    0x080038b6   0x00000006   Code   RO         1302    i._sys_exit         usart.o
    0x080038bc   0x00000028   Code   RO         3068    i.addCanMsgAddr     can_task.o
    0x080038e4   0x00000068   Code   RO         3601    i.addcmdid2filter   control.o
    0x0800394c   0x0000001a   Code   RO         3494    i.addparseBufferAddr  ringbuf.o
    0x08003966   0x0000001c   Code   RO         3537    i.addringaddr       detect.o
    0x08003982   0x00000002   PAD
    0x08003984   0x0000000c   Code   RO         3445    i.addsys_errorcode  encode.o
    0x08003990   0x00000050   Code   RO         3298    i.can_queue_init    can_queue.o
    0x080039e0   0x0000000c   Code   RO         3384    i.can_resolve_speed  can_speed.o
    0x080039ec   0x00000050   Code   RO         3299    i.can_sendqueue_init  can_queue.o
    0x08003a3c   0x0000000a   Code   RO         3069    i.can_set_brandrate  can_task.o
    0x08003a46   0x00000010   Code   RO         3070    i.can_set_filter    can_task.o
    0x08003a56   0x00000002   PAD
    0x08003a58   0x000000e4   Code   RO         3071    i.can_task_init     can_task.o
    0x08003b3c   0x00000058   Code   RO         3476    i.canconvertuart    convert.o
    0x08003b94   0x0000004c   Code   RO         3602    i.canidparse        control.o
    0x08003be0   0x000000f0   Code   RO         3072    i.canreadTask       can_task.o
    0x08003cd0   0x00000078   Code   RO         3073    i.cansendTask       can_task.o
    0x08003d48   0x0000000e   Code   RO         3495    i.cleanBuffer       ringbuf.o
    0x08003d56   0x00000008   Code   RO         3300    i.clean_canqueue    can_queue.o
    0x08003d5e   0x00000008   Code   RO         3301    i.clean_cansendqueue  can_queue.o
    0x08003d66   0x00000002   PAD
    0x08003d68   0x00000054   Code   RO         3568    i.cmd_queue_init    cmd_queue.o
    0x08003dbc   0x00000068   Code   RO         3603    i.cmdid2filter      control.o
    0x08003e24   0x0000012c   Code   RO         3604    i.cmdsetparse       control.o
    0x08003f50   0x000000dc   Code   RO         3605    i.cmdsetprocess     control.o
    0x0800402c   0x00000050   Code   RO         3606    i.control           control.o
    0x0800407c   0x00000050   Code   RO         3607    i.controlInit       control.o
    0x080040cc   0x00000024   Code   RO         1341    i.crc8              crc8.o
    0x080040f0   0x0000001a   Code   RO         1342    i.crc8_creator      crc8.o
    0x0800410a   0x0000003c   Code   RO         1343    i.crc8_populate_lsb  crc8.o
    0x08004146   0x0000003c   Code   RO         1344    i.crc8_populate_msb  crc8.o
    0x08004182   0x00000002   PAD
    0x08004184   0x00000030   Code   RO         1345    i.crcInit           crc8.o
    0x080041b4   0x0000000c   Code   RO         3302    i.del_headdata_queue  can_queue.o
    0x080041c0   0x0000005c   Code   RO         1223    i.delay_init        delay.o
    0x0800421c   0x00000048   Code   RO         3538    i.detectcrc8        detect.o
    0x08004264   0x00000060   Code   RO         3539    i.detectvaildMsgtype  detect.o
    0x080042c4   0x00000052   Code   RO         3540    i.detectvaildSync   detect.o
    0x08004316   0x00000002   PAD
    0x08004318   0x000000d0   Code   RO         3024    i.displaystatus     schedule_task.o
    0x080043e8   0x00000044   Code   RO         3678    i.entry_sleep_mode  sleepwakeup.o
    0x0800442c   0x00000094   Code   RO         3718    i.exti_Init         frameware.o
    0x080044c0   0x0000003e   Code   RO         3719    i.exti_release      frameware.o
    0x080044fe   0x00000038   Code   RO         3496    i.flush             ringbuf.o
    0x08004536   0x00000002   PAD
    0x08004538   0x0000001c   Code   RO         1303    i.fputc             usart.o
    0x08004554   0x0000003c   Code   RO         3075    i.getCanMsgAddr     can_task.o
    0x08004590   0x0000000c   Code   RO         3076    i.getCanReadTaskStatus  can_task.o
    0x0800459c   0x0000000c   Code   RO         3077    i.getCanSendTaskStatus  can_task.o
    0x080045a8   0x0000000c   Code   RO         3078    i.get_can_brandrate  can_task.o
    0x080045b4   0x0000000c   Code   RO         3386    i.get_can_speed     can_speed.o
    0x080045c0   0x0000000c   Code   RO         3387    i.get_canbus_status  can_speed.o
    0x080045cc   0x00000030   Code   RO         3569    i.get_cmd_queue     cmd_queue.o
    0x080045fc   0x00000020   Code   RO         3304    i.get_headdata_queue  can_queue.o
    0x0800461c   0x0000002a   Code   RO         3446    i.get_send_packet   encode.o
    0x08004646   0x0000002c   Code   RO         3305    i.get_send_queue    can_queue.o
    0x08004672   0x00000002   PAD
    0x08004674   0x00000058   Code   RO         3447    i.get_status_packet  encode.o
    0x080046cc   0x0000003c   Code   RO         3608    i.getcontrolCmd     control.o
    0x08004708   0x00000084   Code   RO         3497    i.getdatafromBuffer  ringbuf.o
    0x0800478c   0x0000000c   Code   RO         3609    i.isresponse        control.o
    0x08004798   0x00000028   Code   RO         1165    i.keyAcc_Init       keyacc.o
    0x080047c0   0x00000014   Code   RO         1166    i.keyAcc_Scan       keyacc.o
    0x080047d4   0x00000040   Code   RO         2983    i.main              main.o
    0x08004814   0x00000022   Code   RO         3079    i.pause_can_task    can_task.o
    0x08004836   0x00000002   PAD
    0x08004838   0x00000090   Code   RO         3080    i.pause_read_can_task  can_task.o
    0x080048c8   0x00000078   Code   RO         3209    i.pause_read_uart_task  uart_task.o
    0x08004940   0x00000090   Code   RO         3081    i.pause_send_can_task  can_task.o
    0x080049d0   0x00000078   Code   RO         3210    i.pause_send_uart_task  uart_task.o
    0x08004a48   0x00000022   Code   RO         3211    i.pause_uart_task   uart_task.o
    0x08004a6a   0x00000002   PAD
    0x08004a6c   0x00000050   Code   RO         3570    i.put_cmd_queue     cmd_queue.o
    0x08004abc   0x00000048   Code   RO         3308    i.put_data_queue    can_queue.o
    0x08004b04   0x00000054   Code   RO         3309    i.put_send_queue    can_queue.o
    0x08004b58   0x00000060   Code   RO         3082    i.putcansendPacket  can_task.o
    0x08004bb8   0x0000002c   Code   RO         3610    i.putcontrolCmd     control.o
    0x08004be4   0x000000d0   Code   RO         3498    i.putdatatoBuffer   ringbuf.o
    0x08004cb4   0x00000034   Code   RO         3083    i.resolve_can_message  can_task.o
    0x08004ce8   0x0000000c   Code   RO         3611    i.responsefinish    control.o
    0x08004cf4   0x00000048   Code   RO         3499    i.ringbufferInit    ringbuf.o
    0x08004d3c   0x00000048   Code   RO         3025    i.schedule_indicate_task  schedule_task.o
    0x08004d84   0x00000034   Code   RO         3026    i.schedule_task_init  schedule_task.o
    0x08004db8   0x00000078   Code   RO         3721    i.setGPIOModeToAllPins  frameware.o
    0x08004e30   0x0000000c   Code   RO         3389    i.set_canbus_status  can_speed.o
    0x08004e3c   0x0000000c   Code   RO         3027    i.set_system_status  schedule_task.o
    0x08004e48   0x0000001c   Code   RO         3084    i.start_can_task    can_task.o
    0x08004e64   0x00000098   Code   RO         3085    i.start_canread_task  can_task.o
    0x08004efc   0x00000098   Code   RO         3086    i.start_cansend_task  can_task.o
    0x08004f94   0x00000070   Code   RO         2984    i.start_task        main.o
    0x08005004   0x00000090   Code   RO         3212    i.start_uart_read_task  uart_task.o
    0x08005094   0x00000088   Code   RO         3213    i.start_uart_send_task  uart_task.o
    0x0800511c   0x0000001c   Code   RO         3214    i.start_uart_task   uart_task.o
    0x08005138   0x0000003c   Code   RO         3087    i.startcansend      can_task.o
    0x08005174   0x00000044   Code   RO         3679    i.switchoffclk      sleepwakeup.o
    0x080051b8   0x00000022   Code   RO         3680    i.sys_mode_entry    sleepwakeup.o
    0x080051da   0x00000014   Code   RO         3682    i.sys_stop_mode     sleepwakeup.o
    0x080051ee   0x00000002   PAD
    0x080051f0   0x00000038   Code   RO         3722    i.sys_switch        frameware.o
    0x08005228   0x0000012c   Code   RO         3215    i.uart_parse_task   uart_task.o
    0x08005354   0x00000090   Code   RO         3216    i.uart_read_task    uart_task.o
    0x080053e4   0x00000054   Code   RO         3390    i.uart_send_speed   can_speed.o
    0x08005438   0x000000b0   Code   RO         3217    i.uart_send_task    uart_task.o
    0x080054e8   0x000000b4   Code   RO         3218    i.uart_task_Init    uart_task.o
    0x0800559c   0x00000040   Code   RO         3477    i.uartconvertcan    convert.o
    0x080055dc   0x00000100   Data   RO          198    .constdata          os_core.o
    0x080056dc   0x00000009   Data   RO         1009    .constdata          can.o
    0x080056e5   0x00000012   Data   RO         1097    .constdata          usart2.o
    0x080056f7   0x00000054   Data   RO         3221    .constdata          uart_task.o
    0x0800574b   0x00000022   Data   RO         3311    .constdata          can_queue.o
    0x0800576d   0x0000000f   Data   RO         3500    .constdata          ringbuf.o
    0x0800577c   0x0000001d   Data   RO         3572    .constdata          cmd_queue.o
    0x08005799   0x00000011   Data   RO         3683    .constdata          sleepwakeup.o
    0x080057aa   0x00000015   Data   RO         3723    .constdata          frameware.o
    0x080057bf   0x00000028   Data   RO         3870    .constdata          c_w.l(_printf_hex_int_ll_ptr.o)
    0x080057e7   0x00000011   Data   RO         3890    .constdata          c_w.l(__printf_flags_ss_wp.o)
    0x080057f8   0x00000020   Data   RO         4218    Region$$Table       anon$$obj.o


    Execution Region RW_IRAM1 (Base: 0x20000000, Size: 0x00002880, Max: 0x00005000, ABSOLUTE, COMPRESSED[0x00000058])

    Base Addr    Size         Type   Attr      Idx    E Section Name        Object

    0x20000000   0x00000014   Data   RW          120    .data               system_stm32f10x.o
    0x20000014   0x0000005c   Data   RW          199    .data               os_core.o
    0x20000070   0x00000006   Data   RW          928    .data               os_cpu_c.o
    0x20000076   0x00000002   Data   RW         1098    .data               usart2.o
    0x20000078   0x00000004   Data   RW         1229    .data               delay.o
    0x2000007c   0x00000006   Data   RW         1305    .data               usart.o
    0x20000082   0x00000014   Data   RW         2454    .data               stm32f10x_rcc.o
    0x20000096   0x00000004   Data   RW         2987    .data               main.o
    0x2000009a   0x00000002   PAD
    0x2000009c   0x00000010   Data   RW         3029    .data               schedule_task.o
    0x200000ac   0x00000032   Data   RW         3089    .data               can_task.o
    0x200000de   0x00000002   PAD
    0x200000e0   0x0000002d   Data   RW         3222    .data               uart_task.o
    0x2000010d   0x00000001   PAD
    0x2000010e   0x00000013   Data   RW         3391    .data               can_speed.o
    0x20000121   0x00000001   PAD
    0x20000122   0x00000003   Data   RW         3448    .data               encode.o
    0x20000125   0x00000003   PAD
    0x20000128   0x00000050   Data   RW         3613    .data               control.o
    0x20000178   0x00000f7c   Zero   RW          197    .bss                os_core.o
    0x200010f4   0x00000004   PAD
    0x200010f8   0x00000190   Zero   RW         1096    .bss                usart2.o
    0x20001288   0x000000c8   Zero   RW         1304    .bss                usart.o
    0x20001350   0x00000100   Zero   RW         1346    .bss                crc8.o
    0x20001450   0x00000380   Zero   RW         2985    .bss                main.o
    0x200017d0   0x00000100   Zero   RW         3028    .bss                schedule_task.o
    0x200018d0   0x0000032c   Zero   RW         3088    .bss                can_task.o
    0x20001bfc   0x0000040c   Zero   RW         3220    .bss                uart_task.o
    0x20002008   0x00000120   Zero   RW         3310    .bss                can_queue.o
    0x20002128   0x00000070   Zero   RW         3571    .bss                cmd_queue.o
    0x20002198   0x00000086   Zero   RW         3612    .bss                control.o
    0x2000221e   0x00000002   PAD
    0x20002220   0x00000060   Zero   RW         4043    .bss                c_w.l(libspace.o)
    0x20002280   0x00000200   Zero   RW          162    HEAP                startup_stm32f10x_md.o
    0x20002480   0x00000400   Zero   RW          161    STACK               startup_stm32f10x_md.o


==============================================================================

Image component sizes


      Code (inc. data)   RO Data    RW Data    ZI Data      Debug   Object Name

       752        146          9          0          0       5515   can.o
       420        108         34          0        288       5257   can_queue.o
       132         32          0         19          0       3194   can_speed.o
      1672        572          0         50        812      12133   can_task.o
       212         40         29          0        112       2399   cmd_queue.o
      1092        224          0         80        134       6830   control.o
       152          0          0          0          0       1494   convert.o
         0          0          0          0          0         32   core_cm3.o
       230          8          0          0        256       3516   crc8.o
       120         20          0          4          0       1107   delay.o
       278         44          0          0          0       2998   detect.o
       162         16          0          3          0       2647   encode.o
       612        102         21          0          0       3116   frameware.o
        60         12          0          0          0        928   keyacc.o
       132         14          0          0          0        499   led.o
       176         34          0          4        896       1875   main.o
       192         30          0          0          0       2363   misc.o
      2268        410        256         92       3964      22865   os_core.o
       180         36          0          0          0        312   os_cpu_a.o
       214         10          0          6          0      13448   os_cpu_c.o
        88         14          0          0          0       8714   os_flag.o
      1048         72          0          0          0       3640   os_mutex.o
        80          8          0          0          0        535   os_q.o
       400         22          0          0          0       2274   os_sem.o
       802         70          0          0          0       4936   os_task.o
       216         30          0          0          0       1292   os_time.o
       588         98          0          0          0       3627   os_tmr.o
       508        110         15          0          0       3862   ringbuf.o
       344         48          0         16        256       4154   schedule_task.o
       190         36         17          0          0       1836   sleepwakeup.o
        64         26        236          0       1536        780   startup_stm32f10x_md.o
      1180         12          0          0          0       5042   stm32f10x_can.o
       428          8          0          0          0       4256   stm32f10x_dma.o
       200         18          0          0          0       1904   stm32f10x_exti.o
       508         10          0          0          0       4255   stm32f10x_gpio.o
        22          0          0          0          0     274187   stm32f10x_it.o
        64         10          0          0          0        584   stm32f10x_pwr.o
       372         50          0         20          0       5804   stm32f10x_rcc.o
       250         42          0          0          0       3751   stm32f10x_tim.o
       582         28          0          0          0       5764   stm32f10x_usart.o
        28         10          0          0          0        883   stm32f10x_wwdg.o
       328         28          0         20          0       2049   system_stm32f10x.o
      1382        328         84         45       1036       8156   uart_task.o
       342         28          0          6        200       4080   usart.o
       672         80         18          2        400       5416   usart2.o
        36          6          0          0          0        434   wwdg.o

    ----------------------------------------------------------------------
     19840       3050        751        376       9896     454743   Object Totals
         0          0         32          0          0          0   (incl. Generated)
        62          0          0          9          6          0   (incl. Padding)

    ----------------------------------------------------------------------

      Code (inc. data)   RO Data    RW Data    ZI Data      Debug   Library Member Name

        24          4          0          0          0         84   __2printf.o
        90          0          0          0          0          0   __dczerorl2.o
         8          0          0          0          0         68   __main.o
       392          4         17          0          0         92   __printf_flags_ss_wp.o
        14          0          0          0          0         68   __printf_wp.o
         0          0          0          0          0          0   __rtentry.o
        12          0          0          0          0          0   __rtentry2.o
         6          0          0          0          0          0   __rtentry4.o
        52          8          0          0          0          0   __scatter.o
        28          0          0          0          0          0   __scatter_zi.o
        44          0          0          0          0        108   _printf_char.o
        48          6          0          0          0         96   _printf_char_common.o
        36          4          0          0          0         80   _printf_char_file.o
         6          0          0          0          0          0   _printf_d.o
       120         16          0          0          0         92   _printf_dec.o
       148          4         40          0          0        160   _printf_hex_int_ll_ptr.o
       178          0          0          0          0         88   _printf_intcommon.o
        78          0          0          0          0        108   _printf_pad.o
         0          0          0          0          0          0   _printf_percent.o
         4          0          0          0          0          0   _printf_percent_end.o
         6          0          0          0          0          0   _printf_s.o
        82          0          0          0          0         80   _printf_str.o
         6          0          0          0          0          0   _printf_x.o
        12          0          0          0          0         72   exit.o
         8          0          0          0          0         68   ferror.o
         6          0          0          0          0        152   heapauxi.o
         2          0          0          0          0          0   libinit.o
         2          0          0          0          0          0   libinit2.o
         2          0          0          0          0          0   libshutdown.o
         2          0          0          0          0          0   libshutdown2.o
         8          4          0          0         96         68   libspace.o
        68          0          0          0          0         68   rt_memclr.o
        78          0          0          0          0         80   rt_memclr_w.o
       138          0          0          0          0         68   rt_memcpy_v6.o
       100          0          0          0          0         80   rt_memcpy_w.o
         2          0          0          0          0          0   rtexit.o
        10          0          0          0          0          0   rtexit2.o
        74          0          0          0          0         80   sys_stackheap_outer.o
         2          0          0          0          0         68   use_no_semi.o
         2          0          0          0          0         68   use_no_semi_2.o

    ----------------------------------------------------------------------
      1904         50         57          0         96       1996   Library Totals
         6          0          0          0          0          0   (incl. Padding)

    ----------------------------------------------------------------------

      Code (inc. data)   RO Data    RW Data    ZI Data      Debug   Library Name

      1898         50         57          0         96       1996   c_w.l

    ----------------------------------------------------------------------
      1904         50         57          0         96       1996   Library Totals

    ----------------------------------------------------------------------

==============================================================================


      Code (inc. data)   RO Data    RW Data    ZI Data      Debug   

     21744       3100        808        376       9992     443995   Grand Totals
     21744       3100        808         88       9992     443995   ELF Image Totals (compressed)
     21744       3100        808         88          0          0   ROM Totals

==============================================================================

    Total RO  Size (Code + RO Data)                22552 (  22.02kB)
    Total RW  Size (RW Data + ZI Data)             10368 (  10.13kB)
    Total ROM Size (Code + RO Data + RW Data)      22640 (  22.11kB)

==============================================================================

